cnumpy.core.multiarray
_reconstruct
p0
(cnumpy
ndarray
p1
(I0
tp2
S'b'
p3
tp4
Rp5
(I1
(I463
I2
tp6
cnumpy
dtype
p7
(S'O8'
p8
I0
I1
tp9
Rp10
(I3
S'|'
p11
NNNI-1
I-1
I63
tp12
bI00
(lp13
(lp14
I1
aI2
aI3
aI4
aI5
aI6
aI7
aI8
aI9
aag0
(g1
(I0
tp15
g3
tp16
Rp17
(I1
(I2
tp18
g7
(S'i8'
p19
I0
I1
tp20
Rp21
(I3
S'<'
p22
NNNI-1
I-1
I0
tp23
bI00
S'\x00\x00\x00\x00\x00\x00\x00\x00\x01\x00\x00\x00\x00\x00\x00\x00'
p24
tp25
ba(lp26
I10
aI11
aI12
aI13
aI14
aI15
aI16
aI17
aI4
aI5
aI5
aI18
aI19
aI3
aI20
aI21
aI22
aI23
aI24
aag17
a(lp27
I25
aI26
aI27
aI18
aI28
aI29
aI3
aI30
aI31
aag17
a(lp28
I10
aI32
aI33
aI34
aI35
aI36
aI37
aI27
aI5
aI5
aI18
aI19
aag17
a(lp29
I10
aI4
aI38
aI38
aI39
aI40
aI5
aI5
aI40
aI41
aI3
aI10
aI42
aI43
aI44
aI45
aI46
aI18
aI47
aI48
aI49
aI50
aI51
aI52
aI53
aI41
aI54
aag17
a(lp30
I55
aI56
aI33
aI57
aI19
aI58
aI59
aI60
aI61
aI62
aI63
aag17
a(lp31
I64
aI65
aI66
aI8
aI67
aI68
aI69
aI70
aI71
aI72
aI73
aI74
aag17
a(lp32
I2
aI56
aI33
aI75
aI76
aI77
aI78
aI79
aI37
aI80
aI81
aag17
a(lp33
I27
aI46
aI5
aI18
aI82
aI26
aI83
aI84
aI72
aI75
aI85
aag17
a(lp34
I86
aI37
aI10
aI87
aI88
aI89
aI90
aI91
aI92
aI93
aI94
aI95
aI96
aI97
aI37
aI98
aI99
aI100
aI101
aag17
a(lp35
I27
aI5
aI5
aI18
aI102
aI26
aI103
aI17
aI81
aI75
aI85
aI104
aI105
aag17
a(lp36
I106
aI4
aI107
aI33
aI108
aI109
aI110
aI63
aI111
aI112
aI113
aI114
aI115
aI116
aag17
a(lp37
I117
aI118
aI10
aI119
aI120
aI121
aI44
aI45
aI40
aI17
aI4
aI45
aI27
aI4
aI122
aI123
aI100
aI8
aI124
aI3
aI125
aI10
aI126
aI127
aI120
aag17
a(lp38
I128
aI129
aI130
aI131
aI17
aI132
aI133
aI134
aI135
aI33
aI4
aI38
aI136
aI137
aI40
aI5
aI5
aI138
aI139
aI63
aI140
aI141
aI10
aI142
aI33
aI53
aI41
aI40
aag17
a(lp39
I143
aI144
aI37
aI145
aI72
aI146
aI147
aI148
aI130
aI149
aag17
a(lp40
I150
aI151
aI152
aI17
aI152
aag17
a(lp41
I153
aI154
aI155
aI4
aI156
aI157
aI75
aI40
aI40
aI47
aI89
aI61
aI158
aag17
a(lp42
I1
aI2
aI3
aI159
aI160
aI26
aI161
aI162
aI75
aI85
aag17
a(lp43
I163
aI49
aI44
aI33
aI164
aI165
aI3
aI27
aI5
aI77
aI33
aI166
aI167
aI84
aI85
aI1
aI2
aI3
aI159
aI164
aI168
aI10
aI169
aI170
aI33
aI166
aI167
aI84
aI171
aag17
a(lp44
I1
aI27
aI44
aI46
aI46
aI33
aI164
aI172
aI44
aI173
aI174
aI175
aI26
aI161
aI162
aI72
aI40
aI39
aI27
aI46
aI33
aI164
aI176
aI106
aI44
aI172
aI46
aI26
aI161
aI162
aag17
a(lp45
I48
aI49
aI39
aI5
aI33
aI164
aI177
aI178
aI179
aI10
aI180
aI157
aI181
aI182
aI72
aI183
aI184
aI185
aI72
aI48
aI49
aI39
aI5
aI33
aI186
aI177
aI178
aI177
aI187
aI182
aI166
aI167
aI17
aI179
aI10
aI180
aI157
aI188
aag17
a(lp46
I3
aI40
aI5
aI4
aI27
aI189
aI190
aI164
aI3
aI10
aI191
aI192
aI17
aI193
aI91
aI194
aI17
aI195
aI196
aI27
aI174
aI48
aI197
aI8
aI171
aI157
aI141
aI198
aI27
aI5
aI77
aI199
aI106
aI44
aI45
aI27
aI200
aI106
aI40
aI45
aI40
aI201
aI106
aI5
aI45
aI4
aI202
aI106
aI5
aI45
aI4
aI45
aI10
aI198
aI194
aI203
aI204
aI46
aI106
aI45
aI44
aI205
aI206
aI46
aI172
aI45
aI4
aI72
aI207
aI46
aI172
aI45
aI44
aI45
aI10
aI208
aI209
aI157
aI210
aI211
aI37
aI44
aI4
aI45
aI106
aI45
aag17
a(lp47
I212
aI40
aI44
aI45
aI106
aI33
aI213
aI214
aI8
aI215
aI216
aI217
aI161
aI218
aI118
aI8
aI219
aI171
aI220
aI17
aI4
aI40
aI45
aI39
aI33
aI221
aI222
aI8
aI215
aag17
a(lp48
I1
aI223
aI2
aI3
aI224
aI225
aI65
aI226
aI227
aI8
aI228
aI229
aI72
aI223
aI10
aI230
aI231
aI65
aI8
aI232
aI174
aI233
aI234
aI227
aI89
aI235
aI44
aag17
a(lp49
I40
aI39
aI45
aI5
aI33
aI6
aI174
aI39
aI5
aI45
aI40
aI18
aI19
aI236
aI237
aI72
aI175
aI26
aI161
aI218
aag17
a(lp50
I238
aI2
aI239
aI33
aI135
aI240
aI241
aI242
aI243
aI174
aI244
aI245
aI157
aI27
aI174
aI48
aI246
aI80
aI132
aI209
aI240
aI85
aag17
a(lp51
I247
aI248
aI249
aI250
aI10
aI169
aI251
aI252
aI174
aI253
aI3
aI254
aI255
aI256
aI257
aI258
aI259
aI72
aI260
aI261
aI262
aI263
aI264
aI72
aI265
aI266
aag17
a(lp52
I6
aI267
aI163
aI49
aI10
aI169
aI268
aI33
aI269
aI270
aI271
aI263
aI272
aI273
aI72
aI274
aag17
a(lp53
I223
aI38
aI5
aI33
aI6
aI267
aI48
aI264
aI49
aI37
aI169
aI157
aI8
aI275
aI276
aag17
a(lp54
I277
aI10
aI264
aI6
aI267
aI100
aI4
aI40
aI5
aI5
aI278
aI279
aI85
aI80
aI280
aI158
aI16
aI17
aI40
aI5
aI122
aI8
aI281
aI3
aI282
aI283
aag17
a(lp55
I284
aI285
aI157
aI286
aI287
aI3
aI133
aI288
aI284
aI255
aI257
aI4
aI38
aI172
aI5
aI17
aI40
aI5
aI5
aI39
aI45
aI209
aI289
aI256
aI279
aI156
aI3
aI10
aI290
aI287
aI291
aI106
aI5
aI5
aI256
aag17
a(lp56
I52
aI10
aI4
aI38
aI172
aI5
aI292
aI10
aI231
aI33
aI293
aI284
aI294
aI130
aI48
aI49
aI295
aag17
a(lp57
I48
aI49
aI40
aI27
aI18
aI6
aI296
aI106
aI45
aI44
aI18
aI160
aI151
aI3
aI284
aI297
aI298
aI299
aI89
aI26
aI48
aI49
aI8
aI229
aI300
aI257
aI8
aI301
aag17
a(lp58
I3
aI40
aI5
aI5
aI39
aI132
aI302
aI46
aI38
aI45
aI4
aI18
aI19
aI296
aI4
aI106
aI45
aI172
aI18
aI160
aI303
aI284
aI304
aI305
aI306
aI17
aI307
aI72
aI308
aI309
aI310
aI311
aI138
aI312
aI10
aI281
aag17
a(lp59
I3
aI40
aI5
aI4
aI27
aI313
aI33
aI10
aI191
aI192
aI203
aI91
aI194
aI17
aI195
aI314
aI141
aI198
aI224
aI315
aI33
aI269
aI254
aI174
aI48
aI197
aI279
aI171
aI199
aI106
aI39
aI45
aI172
aI201
aI106
aI27
aI45
aI5
aI72
aI316
aI106
aI4
aI45
aI39
aI45
aI10
aI198
aI194
aI203
aI317
aI44
aI40
aI45
aI27
aI318
aI44
aI27
aI45
aI27
aI72
aI319
aI44
aI27
aI45
aI39
aI45
aI10
aI208
aI209
aI157
aI210
aI320
aI286
aI37
aI44
aI172
aI45
aI172
aI45
aag17
a(lp60
I321
aI256
aI257
aI260
aI261
aI72
aI258
aI259
aI322
aI17
aI46
aI5
aI33
aI323
aI289
aI256
aI157
aI40
aI298
aI4
aI39
aI281
aI324
aI72
aI228
aI33
aI325
aI321
aI256
aI326
aI257
aI237
aI327
aI328
aI329
aI330
aI272
aI331
aI332
aI331
aI333
aI72
aI271
aI334
aag17
a(lp61
I335
aI164
aI336
aI132
aI209
aI33
aI27
aI46
aI5
aI5
aI337
aI33
aI264
aI338
aI339
aI10
aI340
aI341
aI342
aI33
aI163
aI49
aI40
aI27
aI5
aI5
aI278
aI289
aag17
a(lp62
I284
aI343
aI344
aI345
aI346
aI3
aI346
aI214
aI347
aI348
aI3
aI10
aI349
aI192
aI284
aI350
aI351
aI352
aI4
aI56
aI33
aI106
aI353
aI72
aI354
aI291
aI46
aI39
aI18
aI355
aI4
aI40
aI39
aI5
aI5
aI5
aI356
aI72
aI27
aI5
aI5
aI5
aI357
aI84
aI281
aag17
a(lp63
I335
aI279
aI358
aI286
aI33
aI323
aI266
aI287
aI257
aI291
aI44
aI172
aI359
aI3
aI4
aI38
aI39
aI5
aI17
aI172
aI39
aI359
aI3
aI40
aI5
aI5
aI38
aI214
aI10
aI360
aI286
aI217
aI39
aI44
aI359
aI3
aI40
aI5
aI5
aI44
aI45
aag17
a(lp64
I10
aI335
aI361
aI33
aI284
aI362
aI363
aI221
aI214
aI305
aI174
aI364
aI365
aI17
aI366
aI367
aI310
aI3
aI368
aI367
aI369
aI121
aI257
aI4
aI4
aI17
aI4
aI44
aI69
aI40
aI5
aI5
aI44
aI72
aI40
aI5
aI5
aI38
aI45
aag17
a(lp65
I4
aI40
aI45
aI44
aI18
aI4
aI106
aI45
aI38
aI160
aI72
aI186
aI26
aI370
aag17
a(lp66
I11
aI127
aI371
aI89
aI100
aI40
aI5
aI27
aI5
aI228
aI33
aI133
aI164
aI4
aI4
aI44
aI18
aI164
aI3
aI10
aI349
aI192
aI14
aI193
aI370
aag17
a(lp67
I157
aI160
aI214
aI372
aI373
aI374
aI26
aI291
aI27
aI39
aI375
aI49
aI157
aI160
aI222
aI372
aag17
a(lp68
I373
aI374
aI157
aI164
aI214
aI372
aI26
aI291
aI44
aI172
aI375
aI49
aI157
aI164
aI222
aI372
aag17
a(lp69
I238
aI46
aI44
aI33
aI160
aI376
aI3
aI24
aI26
aI377
aI174
aI370
aI220
aI214
aI40
aI40
aI33
aI160
aI376
aI3
aI363
aI214
aI378
aI254
aI138
aI10
aI24
aI379
aag17
a(lp70
I137
aI46
aI5
aI33
aI380
aI72
aI381
aI188
aI176
aI40
aI17
aI4
aI38
aI26
aI377
aI174
aI370
aI220
aI214
aI1
aI40
aI38
aI33
aI382
aI188
aag17
a(lp71
I373
aI383
aI160
aI3
aI10
aI349
aI192
aI130
aI384
aI385
aI141
aI386
aI4
aI172
aI3
aI40
aI5
aI5
aI27
aI40
aI5
aI5
aI46
aI72
aI40
aI5
aI4
aI4
aI40
aI5
aI4
aI40
aI45
aag17
a(lp72
I69
aI40
aI5
aI5
aI27
aI72
aI40
aI5
aI4
aI40
aI373
aI383
aI160
aI69
aI40
aI72
aI44
aI173
aI33
aI387
aI130
aI388
aI257
aI4
aI46
aI17
aI39
aI8
aI46
aI27
aI389
aI3
aI390
aI391
aI8
aI392
aag17
a(lp73
I373
aI374
aI3
aI160
aI106
aI17
aI4
aI4
aI173
aI393
aI65
aI394
aI257
aI4
aI39
aI45
aI39
aI3
aI40
aI5
aI5
aI27
aI40
aI5
aI5
aI46
aI17
aI4
aI172
aI45
aI172
aI3
aI40
aI5
aI4
aI4
aI40
aI5
aI4
aI40
aI373
aI374
aI157
aI160
aI4
aI40
aI17
aI4
aI38
aI173
aI393
aI65
aI287
aI257
aI4
aI172
aI45
aI46
aI17
aI40
aI5
aI45
aI44
aI3
aI10
aI230
aI134
aI395
aag17
a(lp74
I221
aI396
aI26
aI370
aI65
aI282
aI283
aI89
aI26
aI4
aI46
aI40
aI38
aI48
aI49
aI221
aI33
aI397
aI398
aI80
aI209
aI399
aI46
aI40
aI375
aag17
a(lp75
I10
aI400
aI130
aI27
aI45
aI4
aI172
aI122
aI95
aag17
a(lp76
I25
aI26
aI40
aI45
aI27
aI122
aI162
aI87
aI401
aI95
aag17
a(lp77
I38
aI4
aI33
aI402
aI403
aI110
aI40
aI174
aI48
aI87
aI401
aI404
aag17
a(lp78
I400
aI95
aI65
aI132
aI209
aI33
aI44
aI45
aI44
aI46
aI87
aI401
aI405
aag17
a(lp79
I87
aI401
aI95
aI65
aI406
aI100
aI4
aI172
aI106
aI18
aI3
aI10
aI407
aI281
aag17
a(lp80
I4
aI18
aI408
aI162
aI409
aI87
aI95
aI26
aI260
aI75
aI85
aI410
aI4
aI40
aI84
aI411
aag17
a(lp81
I81
aI412
aI72
aI413
aI414
aI106
aI5
aI122
aI415
aI8
aI85
aag17
a(lp82
I87
aI416
aI417
aI132
aI302
aI39
aI45
aI27
aI122
aI257
aI418
aI3
aI40
aI5
aI4
aI44
aag17
a(lp83
I27
aI39
aI33
aI419
aI420
aI17
aI421
aI48
aI49
aI40
aI5
aI33
aI112
aI323
aI418
aI422
aI80
aI87
aI401
aI404
aI3
aI40
aI5
aI4
aI44
aI16
aI257
aI4
aI27
aI8
aI281
aI423
aag17
a(lp84
I1
aI40
aI5
aI424
aI44
aI5
aI5
aI425
aI426
aI427
aI214
aI112
aI428
aI80
aI81
aI429
aI39
aI27
aI65
aI8
aI430
aI80
aI431
aag17
a(lp85
I19
aI236
aI44
aI44
aI106
aI46
aI26
aI48
aI49
aI432
aI111
aI194
aI17
aI427
aI214
aI433
aI434
aI49
aI221
aI40
aI39
aI174
aI435
aag17
a(lp86
I38
aI106
aI33
aI10
aI19
aI89
aI436
aI403
aI79
aI177
aI178
aI437
aI221
aI403
aI438
aI439
aag17
a(lp87
I172
aI39
aI107
aI33
aI19
aI396
aI440
aI17
aI8
aI441
aI104
aI431
aI442
aI8
aI443
aI227
aI132
aI444
aag17
a(lp88
I80
aI445
aI446
aI44
aI106
aI18
aI447
aI448
aI26
aI449
aI75
aI450
aag17
a(lp89
I8
aI40
aI5
aI4
aI4
aI451
aI100
aI452
aI453
aI89
aI40
aI172
aI18
aI454
aI33
aI434
aI203
aI455
aI75
aI85
aI72
aI456
aI27
aI45
aI40
aI122
aI457
aI26
aI455
aI84
aI85
aag17
a(lp90
I10
aI458
aI27
aI434
aI459
aI460
aI26
aI461
aI106
aI44
aI87
aI401
aI106
aI46
aI72
aI462
aI463
aI106
aI46
aag17
a(lp91
I81
aI464
aI465
aI39
aI122
aI209
aI289
aI243
aI466
aI257
aI44
aI5
aI5
aI18
aI95
aag17
a(lp92
I467
aI95
aI468
aI106
aI122
aI469
aI75
aI85
aag17
a(lp93
I335
aI164
aI421
aI132
aI209
aI33
aI4
aI444
aI4
aI106
aI77
aI84
aI85
aI470
aI243
aI80
aI471
aI472
aag17
a(lp94
I172
aI39
aI33
aI19
aI468
aI79
aI469
aI75
aI171
aI44
aI44
aI468
aI75
aI85
aag17
a(lp95
I97
aI473
aI4
aI5
aI5
aI122
aI474
aI8
aI450
aag17
a(lp96
I410
aI132
aI209
aI33
aI46
aI5
aI5
aI5
aI5
aI475
aI476
aI75
aI411
aag17
a(lp97
I39
aI38
aI45
aI27
aI33
aI133
aI400
aI474
aI26
aI477
aI56
aI100
aI97
aag17
a(lp98
I221
aI474
aI26
aI477
aI56
aI100
aI4
aI45
aI4
aI172
aI122
aI478
aI95
aag17
a(lp99
I75
aI85
aI4
aI106
aI17
aI40
aI5
aI33
aI89
aI197
aI476
aI65
aI479
aI480
aI59
aI481
aag17
a(lp100
I97
aI130
aI482
aI46
aI44
aI5
aI122
aI478
aI476
aI52
aI40
aI5
aI5
aI27
aag17
a(lp101
I48
aI49
aI228
aI33
aI483
aI474
aI326
aI257
aI409
aI472
aag17
a(lp102
I100
aI40
aI5
aI4
aI46
aI97
aI484
aI485
aI27
aI5
aI5
aI5
aI5
aI5
aI5
aI5
aI5
aI5
aI5
aI5
aI5
aI5
aI486
aI33
aI10
aI400
aag17
a(lp103
I17
aI487
aI56
aI133
aI325
aI474
aI483
aI488
aI489
aI490
aI5
aI45
aI5
aI4
aI33
aI491
aI492
aag17
a(lp104
I81
aI493
aI44
aI5
aI5
aI5
aI5
aI5
aI408
aI95
aI75
aI85
aI106
aI408
aI439
aI75
aI411
aag17
a(lp105
I172
aI40
aI33
aI133
aI79
aI335
aI164
aI494
aI81
aI141
aI198
aI495
aI8
aI450
aag17
a(lp106
I10
aI209
aI496
aI231
aI33
aI497
aI37
aI27
aI27
aI39
aI72
aI10
aI498
aI499
aI231
aI33
aI497
aI37
aI40
aI5
aI5
aag17
a(lp107
I228
aI33
aI400
aI95
aI396
aI177
aI178
aI110
aI81
aI500
aI151
aI214
aI501
aI396
aI502
aag17
a(lp108
I33
aI221
aI40
aI46
aI503
aI89
aI61
aI504
aI141
aI448
aI174
aI505
aI80
aI89
aI213
aI506
aag17
a(lp109
I25
aI26
aI132
aI302
aI39
aI4
aI18
aI507
aI81
aI439
aag17
a(lp110
I10
aI91
aI508
aI509
aI37
aI81
aI157
aI75
aI510
aI214
aI44
aI5
aI38
aI172
aI172
aI40
aI4
aI44
aI40
aI511
aag17
a(lp111
I25
aI26
aI46
aI5
aI18
aI162
aI512
aI513
aI486
aag17
a(lp112
I514
aI1
aI40
aI18
aI33
aI221
aI515
aI516
aI157
aI418
aag17
a(lp113
I81
aI405
aI157
aI106
aI40
aI33
aI87
aI517
aI518
aI100
aI519
aI17
aI520
aI22
aI10
aI521
aI72
aI522
aI33
aI523
aI72
aI403
aag17
a(lp114
I44
aI5
aI5
aI18
aI19
aI494
aI431
aI84
aI450
aI222
aI524
aI3
aag17
a(lp115
I25
aI37
aI8
aI323
aI33
aI4
aI45
aI27
aI122
aI405
aI514
aI1
aI27
aI40
aI5
aI18
aI26
aI162
aag17
a(lp116
I33
aI221
aI46
aI46
aI518
aI132
aI506
aI72
aI525
aI481
aI526
aI527
aI8
aI528
aag17
a(lp117
I10
aI209
aI431
aI529
aI130
aI40
aI5
aI39
aI530
aag17
a(lp118
I514
aI27
aI38
aI4
aI18
aI405
aI65
aI531
aI530
aI141
aI133
aag17
a(lp119
I25
aI26
aI44
aI5
aI5
aI18
aI82
aI83
aI84
aI85
aI410
aI106
aI5
aI5
aI5
aI82
aI75
aI411
aag17
a(lp120
I532
aI458
aI44
aI533
aI21
aI506
aI157
aI44
aI5
aI33
aI133
aI82
aag17
a(lp121
I63
aI534
aI27
aI173
aI40
aI535
aI72
aI4
aI85
aI17
aI536
aI257
aI10
aI537
aI528
aI17
aI10
aI538
aag17
a(lp122
I106
aI44
aI45
aI39
aI33
aI335
aI425
aI214
aI4
aI5
aI5
aI539
aI110
aI431
aI157
aI459
aag17
a(lp123
I172
aI172
aI33
aI431
aI95
aI540
aI48
aI541
aI223
aI8
aI441
aI542
aI112
aI528
aI130
aI480
aI543
aI17
aag17
a(lp124
I27
aI5
aI5
aI246
aI33
aI243
aI26
aI103
aI17
aI544
aI75
aI545
aag17
a(lp125
I25
aI26
aI27
aI45
aI40
aI44
aI122
aI246
aI33
aI243
aI546
aI84
aI450
aag17
a(lp126
I48
aI49
aI228
aI33
aI544
aI466
aI326
aI257
aI409
aI472
aag17
a(lp127
I10
aI209
aI409
aI547
aI548
aI549
aI48
aI49
aI46
aI5
aI77
aag17
a(lp128
I10
aI529
aI550
aI243
aI214
aI10
aI91
aI466
aI37
aI551
aI552
aI553
aI554
aI214
aI39
aI27
aI46
aI38
aI44
aI106
aI39
aI38
aI38
aI466
aag17
a(lp129
I80
aI209
aI25
aI26
aI4
aI5
aI5
aI5
aI5
aI5
aI5
aI5
aI5
aI5
aI409
aI243
aI466
aI279
aI85
aag17
a(lp130
I3
aI40
aI5
aI4
aI46
aI10
aI91
aI555
aI556
aI140
aI557
aI10
aI411
aI140
aI558
aag17
a(lp131
I38
aI33
aI335
aI512
aI515
aI110
aI544
aag17
a(lp132
I559
aI560
aI561
aI544
aI3
aI8
aI323
aI33
aI172
aI106
aI562
aI563
aI564
aI38
aI44
aI33
aI10
aI400
aI565
aag17
a(lp133
I25
aI26
aI46
aI5
aI5
aI18
aI566
aI162
aI95
aI80
aI105
aag17
a(lp134
I567
aI39
aI5
aI18
aI505
aI26
aI103
aI84
aI85
aag17
a(lp135
I25
aI26
aI27
aI45
aI44
aI122
aI105
aI511
aI279
aI85
aag17
a(lp136
I48
aI49
aI46
aI5
aI122
aI505
aI65
aI480
aI455
aI568
aI569
aag17
a(lp137
I38
aI5
aI107
aI33
aI105
aI95
aI26
aI435
aI49
aI27
aI44
aag17
a(lp138
I542
aI105
aI570
aI469
aI48
aI49
aI44
aI18
aI203
aI455
aI3
aI40
aI46
aI246
aag17
a(lp139
I333
aI37
aI10
aI91
aI508
aI571
aI284
aI572
aI573
aI72
aI574
aag17
a(lp140
I27
aI40
aI33
aI335
aI575
aI576
aI105
aI111
aI112
aI577
aI87
aI88
aag17
a(lp141
I4
aI172
aI106
aI18
aI86
aI405
aI65
aI480
aI578
aag17
a(lp142
I514
aI1
aI4
aI5
aI5
aI18
aI26
aI162
aI84
aI450
aag17
a(lp143
I46
aI40
aI33
aI133
aI79
aI579
aI110
aI10
aI580
aag17
a(lp144
I10
aI581
aI134
aI17
aI582
aI37
aI583
aI257
aI39
aI584
aI4
aI4
aI584
aag17
a(lp145
I3
aI40
aI5
aI4
aI46
aI585
aI586
aI587
aI46
aI4
aI72
aI112
aI209
aI134
aI78
aI80
aI86
aI588
aI17
aI48
aI49
aI172
aI44
aI77
aI279
aI589
aag17
a(lp146
I106
aI106
aI33
aI434
aI89
aI95
aI582
aI590
aI257
aI441
aI522
aag17
a(lp147
I108
aI130
aI46
aI44
aI5
aI18
aI109
aag17
a(lp148
I4
aI5
aI5
aI18
aI33
aI221
aI591
aI10
aI116
aI80
aI8
aI566
aI592
aag17
a(lp149
I48
aI49
aI4
aI18
aI109
aI65
aI449
aI434
aI80
aI108
aag17
a(lp150
I10
aI209
aI593
aI130
aI38
aI27
aI5
aI108
aI594
aag17
a(lp151
I567
aI27
aI18
aI425
aI65
aI595
aI108
aI405
aag17
a(lp152
I514
aI1
aI4
aI172
aI33
aI335
aI512
aI515
aI110
aI108
aag17
a(lp153
I25
aI26
aI172
aI46
aI596
aI157
aI75
aI2
aI597
aI3
aI316
aI598
aag17
a(lp154
I599
aI600
aI601
aI78
aI4
aI39
aI39
aI197
aI3
aI8
aI602
aI3
aI603
aI410
aI10
aI248
aI604
aag17
a(lp155
I3
aI10
aI335
aI10
aI209
aI605
aI37
aI40
aI4
aI173
aI393
aI10
aI209
aI606
aI37
aI40
aI27
aI45
aag17
a(lp156
I607
aI559
aI608
aI157
aI567
aI39
aI72
aI8
aI228
aI173
aI559
aI609
aI65
aI610
aI187
aI611
aI612
aI17
aI613
aI2
aI614
aI33
aI615
aag17
a(lp157
I531
aI616
aI33
aI617
aI618
aI619
aI560
aI193
aI620
aI3
aI228
aI48
aI49
aI172
aI138
aag17
a(lp158
I607
aI559
aI621
aI157
aI40
aI46
aI246
aI8
aI85
aI63
aI609
aI622
aI567
aI27
aI4
aI5
aI5
aI5
aI173
aI17
aI623
aI2
aI136
aag17
a(lp159
I10
aI53
aI604
aI157
aI624
aI625
aI140
aI626
aI80
aI627
aI628
aI27
aI5
aI5
aI5
aI138
aI3
aI8
aI602
aag17
a(lp160
I25
aI26
aI48
aI629
aI630
aI80
aI631
aI85
aI49
aI50
aI632
aI85
aI33
aI10
aI281
aag17
a(lp161
I25
aI26
aI40
aI38
aI27
aI369
aI17
aI633
aI124
aI157
aI8
aI634
aag17
a(lp162
I458
aI237
aI635
aI157
aI217
aI636
aI157
aI637
aI4
aI638
aI40
aI639
aI27
aI640
aI46
aI641
aI44
aI153
aI642
aI106
aI643
aI644
aag17
a(lp163
I10
aI645
aI492
aI646
aI257
aI10
aI647
aI645
aI648
aI649
aI650
aag17
a(lp164
I651
aI652
aI653
aI654
aI8
aI655
aI490
aI4
aI44
aI5
aI256
aI132
aI444
aag17
a(lp165
I10
aI656
aI657
aI3
aI10
aI53
aI140
aI39
aI4
aI4
aI658
aI659
aI660
aI661
aI140
aI390
aI40
aI40
aI542
aI661
aI662
aI3
aI4
aI38
aI46
aI38
aI257
aI132
aI663
aI664
aI100
aI665
aI666
aI661
aI667
aI17
aI668
aI669
aI80
aI670
aI671
aag17
a(lp166
I25
aI37
aI464
aI132
aI672
aI141
aI673
aI674
aI3
aI675
aI676
aI130
aI8
aI677
aI565
aI33
aI40
aI5
aI5
aI45
aag17
a(lp167
I386
aI2
aI3
aI27
aI44
aI678
aI679
aI236
aI46
aI4
aI172
aI680
aI8
aI681
aI682
aag17
a(lp168
I2
aI3
aI76
aI678
aI679
aI680
aI8
aI683
aI684
aI685
aag17
a(lp169
I2
aI3
aI686
aI678
aI679
aI106
aI45
aI38
aI236
aI46
aI4
aI172
aI303
aI132
aI687
aI682
aI3
aI40
aI5
aI4
aI44
aI45
aI688
aI37
aI689
aI17
aI291
aI40
aI172
aI39
aI5
aI5
aI5
aI678
aI19
aag17
a(lp170
I10
aI231
aI33
aI357
aI100
aI690
aI3
aI678
aI679
aI37
aI10
aI360
aI63
aI130
aI480
aI3
aI4
aI5
aI173
aag17
a(lp171
I386
aI2
aI3
aI159
aI678
aI691
aI164
aI236
aI4
aI39
aI40
aI46
aI173
aI195
aI692
aI693
aI694
aI695
aI33
aI112
aI74
aI696
aI697
aI698
aI174
aI699
aag17
a(lp172
I291
aI2
aI3
aI254
aI678
aI19
aI236
aI4
aI27
aI4
aI38
aI173
aI214
aI700
aI4
aI701
aI680
aI702
aI17
aI703
aI704
aI33
aI705
aI72
aI687
aag17
a(lp173
I386
aI2
aI3
aI254
aI706
aI72
aI707
aI708
aI709
aI678
aI19
aI236
aI4
aI44
aI298
aI40
aI46
aI173
aI195
aI692
aI694
aI695
aI61
aI203
aI33
aI706
aI710
aI707
aI708
aI709
aI698
aag17
a(lp174
I711
aI712
aI159
aI3
aI254
aI713
aI683
aI684
aI714
aI715
aI100
aI387
aI40
aI46
aI72
aI228
aI100
aI387
aI4
aI46
aag17
a(lp175
I4
aI3
aI4
aI5
aI248
aI164
aI130
aI701
aag17
a(lp176
I25
aI203
aI4
aI45
aI172
aI18
aI408
aI716
aI33
aI701
aI3
aI40
aI5
aI4
aI40
aI45
aag17
a(lp177
I106
aI5
aI17
aI172
aI5
aI33
aI19
aI214
aI701
aI680
aI717
aI718
aag17
a(lp178
I291
aI75
aI27
aI77
aI2
aI156
aI3
aI10
aI349
aI192
aI335
aI37
aI719
aI214
aI8
aI720
aI721
aag17
a(lp179
I408
aI716
aI33
aI722
aI723
aI72
aI724
aI26
aI725
aI17
aI506
aI157
aI4
aI5
aI45
aI40
aI107
aI33
aI10
aI302
aI4
aI106
aI39
aI39
aI172
aI39
aI5
aI408
aI721
aI716
aI719
aI3
aI10
aI335
aI3
aI40
aI5
aI4
aI172
aI45
aag17
a(lp180
I132
aI302
aI4
aI4
aI5
aI27
aI46
aI44
aI19
aI3
aI10
aI335
aI26
aI376
aI214
aI174
aI3
aI726
aI257
aI724
aag17
a(lp181
I727
aI283
aI121
aI40
aI45
aI39
aI80
aI8
aI281
aI567
aI281
aI592
aI3
aI728
aI191
aI8
aI4
aI45
aI38
aI729
aI10
aI730
aI450
aag17
a(lp182
I731
aI732
aI157
aI284
aI121
aI5
aI45
aI38
aI3
aI733
aI734
aI735
aI5
aI45
aI106
aI3
aI736
aag17
a(lp183
I2
aI3
aI224
aI39
aI17
aI4
aI4
aI281
aI324
aI72
aI76
aI3
aI57
aI4
aI40
aI17
aI4
aI44
aI281
aI324
aI130
aI8
aI87
aI401
aI737
aag17
a(lp184
I4
aI3
aI27
aI400
aI95
aI26
aI160
aag17
a(lp185
I4
aI3
aI46
aI160
aI65
aI303
aI738
aI739
aI80
aI8
aI87
aI115
aI116
aag17
a(lp186
I25
aI203
aI567
aI4
aI40
aI5
aI5
aI5
aI740
aI741
aI214
aI678
aI19
aI396
aI742
aI17
aI743
aI223
aI79
aI744
aI407
aI281
aag17
a(lp187
I4
aI3
aI27
aI160
aI65
aI480
aI8
aI745
aI33
aI746
aag17
a(lp188
I48
aI49
aI172
aI3
aI4
aI5
aI747
aI65
aI748
aI157
aI174
aI749
aI750
aI174
aI751
aI223
aI125
aI17
aI752
aI112
aI753
aI754
aI79
aI755
aag17
a(lp189
I137
aI4
aI3
aI46
aI678
aI19
aI65
aI326
aI756
aI757
aI174
aI758
aI415
aI79
aag17
a(lp190
I3
aI40
aI5
aI4
aI106
aI10
aI400
aI468
aI759
aI760
aI567
aI44
aI172
aI5
aI5
aI5
aI761
aI762
aI753
aI763
aI764
aI457
aag17
a(lp191
I25
aI203
aI567
aI40
aI4
aI5
aI5
aI740
aI741
aI214
aI678
aI19
aI396
aI742
aI3
aI743
aI223
aI79
aI753
aI763
aI765
aI766
aI3
aI40
aI5
aI4
aI106
aI4
aI172
aag17
a(lp192
I291
aI4
aI45
aI40
aI44
aI18
aI248
aI160
aI72
aI164
aI65
aI700
aI4
aI701
aag17
a(lp193
I39
aI44
aI45
aI40
aI33
aI19
aI214
aI700
aI40
aI701
aI26
aI377
aI174
aI370
aag17
a(lp194
I10
aI767
aI33
aI719
aI701
aI3
aI10
aI335
aI287
aI100
aI27
aI39
aI40
aI257
aI4
aI38
aI39
aI39
aI17
aI40
aI5
aI4
aI46
aag17
a(lp195
I8
aI156
aI214
aI719
aI701
aI141
aI387
aI44
aI5
aI768
aI106
aI173
aI769
aI49
aI8
aI770
aI222
aI701
aag17
a(lp196
I3
aI40
aI5
aI5
aI106
aI40
aI45
aI106
aI122
aI19
aI174
aI46
aI5
aI33
aI10
aI771
aI565
aI772
aI80
aI163
aI49
aI40
aI8
aI85
aI214
aI4
aI122
aI33
aI773
aI774
aI80
aI10
aI775
aI33
aI776
aI214
aI163
aI49
aI4
aI8
aI85
aag17
a(lp197
I408
aI777
aI778
aI37
aI569
aI257
aI10
aI779
aI778
aI3
aI10
aI53
aI426
aI3
aI4
aI106
aI780
aI781
aI141
aI390
aI391
aI39
aI45
aI44
aI18
aI19
aag17
a(lp198
I46
aI107
aI33
aI782
aI783
aI26
aI190
aI3
aI10
aI784
aI174
aI785
aag17
a(lp199
I786
aI8
aI238
aI44
aI5
aI107
aI787
aI89
aI652
aI782
aI788
aI789
aI37
aI790
aI69
aI652
aI791
aI792
aag17
a(lp200
I793
aI17
aI690
aI794
aI795
aI37
aI10
aI796
aI85
aI157
aI797
aI798
aag17
a(lp201
I40
aI44
aI33
aI248
aI101
aI26
aI464
aI237
aI671
aI174
aI799
aI220
aI17
aI1
aI46
aI80
aI4
aI38
aI5
aI5
aI45
aag17
a(lp202
I800
aI801
aI223
aI4
aI44
aI33
aI10
aI802
aag17
a(lp203
I3
aI4
aI38
aI44
aI5
aI1
aI172
aI33
aI6
aI803
aI112
aI804
aI464
aI172
aI44
aI177
aag17
a(lp204
I27
aI106
aI33
aI10
aI805
aI806
aI807
aI227
aI808
aI809
aag17
a(lp205
I1
aI106
aI33
aI133
aI810
aI811
aI26
aI526
aI812
aag17
a(lp206
I10
aI53
aI130
aI480
aI141
aI813
aI1
aI39
aI33
aI10
aI134
aI567
aI10
aI407
aI27
aI44
aI5
aI5
aI173
aag17
a(lp207
I106
aI5
aI33
aI133
aI814
aI72
aI815
aI503
aI61
aI816
aI141
aI198
aI2
aI817
aag17
a(lp208
I4
aI4
aI33
aI10
aI818
aI37
aI819
aI100
aI820
aag17
a(lp209
I25
aI37
aI8
aI27
aI27
aI787
aI89
aI8
aI821
aI822
aI3
aI10
aI335
aI14
aI142
aI16
aI111
aI821
aI823
aag17
a(lp210
I3
aI10
aI824
aI825
aI1
aI4
aI33
aI826
aI526
aI827
aI10
aI828
aI829
aag17
a(lp211
I172
aI44
aI33
aI133
aI830
aI831
aI832
aI112
aI833
aag17
a(lp212
I1
aI106
aI33
aI10
aI834
aI80
aI802
aI37
aI835
aI157
aI836
aI837
aag17
a(lp213
I172
aI40
aI33
aI6
aI838
aI839
aI10
aI19
aI396
aI151
aI840
aI841
aag17
a(lp214
I40
aI44
aI33
aI164
aI503
aI79
aI842
aI838
aI843
aI111
aI844
aag17
a(lp215
I4
aI38
aI33
aI101
aI503
aI61
aI845
aI846
aI217
aI847
aI111
aI848
aI111
aI61
aI484
aI10
aI849
aI850
aag17
a(lp216
I40
aI46
aI33
aI851
aI503
aI89
aI542
aI790
aI3
aI638
aI61
aI852
aI853
aI854
aag17
a(lp217
I4
aI33
aI335
aI515
aI855
aI112
aI539
aI17
aI622
aI856
aI118
aI857
aI246
aag17
a(lp218
I40
aI5
aI33
aI101
aI503
aI89
aI112
aI858
aI130
aI859
aI773
aI48
aI223
aI860
aI49
aI112
aI747
aI65
aag17
a(lp219
I106
aI5
aI33
aI248
aI861
aI26
aI862
aI734
aI863
aag17
a(lp220
I91
aI861
aI26
aI864
aI3
aI728
aI72
aI865
aag17
a(lp221
I866
aI867
aI110
aI46
aI5
aI107
aI33
aI10
aI771
aI868
aag17
a(lp222
I567
aI4
aI44
aI122
aI869
aI65
aI480
aI870
aI300
aI3
aI871
aI872
aI873
aag17
a(lp223
I40
aI106
aI122
aI130
aI480
aI874
aI56
aI3
aI875
aI3
aI10
aI349
aI192
aI3
aI10
aI407
aI40
aI5
aI173
aag17
a(lp224
I4
aI27
aI19
aI26
aI876
aI84
aI281
aI100
aI877
aI878
aI879
aI80
aI773
aag17
a(lp225
I10
aI880
aI144
aI33
aI881
aI638
aI37
aI27
aI4
aI46
aI5
aI5
aI5
aI45
aag17
a(lp226
I44
aI27
aI33
aI6
aI852
aI61
aI26
aI874
aI10
aI882
aI170
aag17
a(lp227
I223
aI39
aI5
aI5
aI5
aI6
aI26
aI883
aI100
aI884
aI885
aI84
aI281
aag17
a(lp228
I2
aI3
aI886
aI6
aI887
aI112
aI888
aI889
aag17
a(lp229
I38
aI44
aI33
aI10
aI890
aI80
aI802
aI26
aI891
aI49
aI8
aI892
aI893
aag17
a(lp230
I44
aI172
aI33
aI579
aI609
aI894
aI536
aI80
aI8
aI895
aI896
aI49
aI65
aI644
aag17
a(lp231
I106
aI27
aI33
aI897
aI898
aI899
aI214
aI112
aI900
aag17
a(lp232
I44
aI39
aI33
aI240
aI901
aI503
aI333
aI37
aI112
aI902
aI903
aI284
aag17
a(lp233
I27
aI40
aI33
aI904
aI905
aI852
aI61
aI14
aI179
aI112
aI906
aI907
aI79
aag17
a(lp234
I3
aI4
aI38
aI46
aI39
aI40
aI45
aI27
aI33
aI248
aI363
aI484
aI908
aI456
aI38
aI38
aI177
aag17
a(lp235
I3
aI4
aI38
aI38
aI39
aI44
aI39
aI33
aI248
aI164
aI203
aI909
aI72
aI376
aI214
aI112
aI910
aI132
aI133
aI134
aI145
aag17
a(lp236
I46
aI106
aI33
aI911
aI80
aI858
aI912
aI3
aI913
aag17
a(lp237
I1
aI223
aI44
aI33
aI19
aI914
aI3
aI915
aag17
a(lp238
I39
aI5
aI33
aI135
aI240
aI916
aI585
aI72
aI94
aI503
aI61
aI65
aI480
aI917
aag17
a(lp239
I106
aI44
aI33
aI248
aI186
aI918
aI919
aag17
a(lp240
I4
aI3
aI106
aI539
aI503
aI61
aI920
aI568
aI921
aI141
aI8
aI922
aI407
aI281
aI89
aI61
aI923
aI924
aI925
aI773
aI514
aI926
aag17
a(lp241
I10
aI209
aI248
aI330
aI27
aI45
aI46
aI927
aI33
aI615
aI8
aI85
aag17
a(lp242
I39
aI44
aI33
aI747
aI110
aI753
aI343
aI928
aI929
aag17
a(lp243
I10
aI209
aI248
aI930
aI931
aI106
aI932
aI8
aI281
aI10
aI209
aI930
aI3
aI933
aI931
aI4
aI5
aI45
aag17
a(lp244
I10
aI209
aI248
aI585
aI934
aI106
aI38
aI138
aI8
aI85
aI139
aI10
aI209
aI935
aI934
aI44
aI44
aI138
aI8
aI85
aag17
a(lp245
I39
aI44
aI33
aI936
aI630
aI26
aI518
aI100
aI937
aag17
a(lp246
I44
aI33
aI6
aI479
aI918
aI909
aag17
a(lp247
I106
aI5
aI33
aI10
aI938
aI33
aI939
aI940
aI37
aI941
aI257
aI10
aI942
aI33
aI943
aI944
aag17
a(lp248
I44
aI5
aI33
aI248
aI164
aI945
aI132
aI946
aI167
aI3
aI4
aI38
aI38
aI172
aI45
aag17
a(lp249
I19
aI236
aI40
aI46
aI27
aI44
aI947
aI163
aI49
aI164
aI33
aI632
aI387
aI948
aag17
a(lp250
I44
aI33
aI6
aI503
aI61
aI479
aI633
aI112
aI949
aag17
a(lp251
I10
aI209
aI156
aI950
aI112
aI951
aI4
aI4
aI138
aI3
aI112
aI860
aI223
aI495
aI75
aI106
aI173
aag17
a(lp252
I27
aI44
aI33
aI19
aI470
aI858
aI952
aI141
aI63
aag17
a(lp253
I2
aI3
aI76
aI6
aI953
aI954
aI10
aI335
aI80
aI8
aI955
aag17
a(lp254
I40
aI27
aI33
aI956
aI60
aI61
aI609
aI637
aI957
aI607
aI112
aI958
aI959
aI8
aI4
aI5
aI5
aI5
aI895
aI896
aI141
aI8
aI960
aI33
aI112
aI961
aag17
a(lp255
I1
aI27
aI5
aI33
aI335
aI164
aI426
aI65
aI962
aI429
aI44
aI5
aI26
aI797
aI963
aI223
aI63
aag17
a(lp256
I27
aI40
aI33
aI579
aI72
aI39
aI33
aI101
aI503
aI61
aI26
aI964
aI141
aI965
aI966
aI49
aI112
aI967
aag17
a(lp257
I4
aI27
aI33
aI10
aI968
aI3
aI8
aI870
aI969
aI26
aI970
aag17
a(lp258
I10
aI209
aI387
aI901
aI971
aI17
aI110
aI8
aI972
aI37
aI76
aag17
a(lp259
I10
aI209
aI248
aI490
aI172
aI27
aI5
aI973
aI100
aI10
aI387
aI33
aI4
aI5
aI45
aag17
a(lp260
I106
aI27
aI33
aI248
aI164
aI14
aI974
aI141
aI198
aI4
aI243
aI688
aI450
aag17
a(lp261
I10
aI209
aI975
aI976
aI567
aI4
aI40
aI138
aI3
aI977
aI279
aI978
aag17
a(lp262
I10
aI979
aI490
aI132
aI209
aI33
aI106
aI106
aI106
aI976
aI33
aI980
aI619
aI84
aI85
aag17
a(lp263
I48
aI861
aI26
aI981
aI3
aI736
aI49
aI50
aI632
aI450
aag17
a(lp264
I652
aI525
aI346
aI502
aI132
aI209
aI33
aI44
aI106
aI33
aI652
aI982
aag17
a(lp265
I63
aI983
aI132
aI209
aI156
aI76
aI77
aI17
aI984
aI985
aI80
aI132
aI209
aI978
aag17
a(lp266
I986
aI987
aI988
aI37
aI989
aI990
aI17
aI110
aag17
a(lp267
I991
aI982
aI174
aI992
aI434
aI3
aI10
aI537
aI993
aI994
aI995
aI10
aI996
aI997
aI17
aI998
aI999
aI10
aI434
aag17
a(lp268
I688
aI1000
aI1001
aI111
aI8
aI999
aI1002
aI157
aI1003
aI1004
aI72
aI1005
aI1006
aI22
aI48
aI986
aI1006
aag17
a(lp269
I63
aI560
aI193
aI1007
aI111
aI8
aI1008
aI1009
aI1010
aI1011
aI17
aI1012
aI365
aI17
aI1013
aI8
aI1014
aI850
aI33
aI993
aI72
aI1015
aI1016
aI311
aI478
aI1017
aI214
aI84
aI1018
aI33
aI10
aI230
aI434
aag17
a(lp270
I214
aI986
aI987
aI988
aI559
aI560
aI1019
aI434
aI79
aI72
aI1020
aI16
aI17
aI4
aI5
aI5
aI5
aI5
aI1021
aI174
aI163
aI141
aI8
aI1022
aI1018
aag17
a(lp271
I688
aI1023
aI193
aI48
aI49
aI187
aI157
aI1024
aI1025
aI1026
aI174
aI1027
aI1028
aI434
aI157
aI1029
aI676
aI1030
aI1031
aI33
aI8
aI1014
aI170
aI33
aI434
aag17
a(lp272
I1032
aI257
aI1033
aI217
aI99
aI111
aI8
aI1034
aI17
aI1035
aI993
aI174
aI999
aI434
aI986
aI987
aI988
aI560
aI193
aI1036
aI93
aI1037
aI8
aI231
aI33
aI1038
aI1039
aag17
a(lp273
I1040
aI1041
aI1042
aI408
aI369
aI17
aI1043
aI1006
aI1044
aI72
aI1045
aI72
aI1046
aI48
aI1047
aI17
aI10
aI1048
aI33
aI1049
aI408
aI434
aag17
a(lp274
I1011
aI17
aI125
aI1050
aI72
aI1051
aI8
aI1052
aI33
aI10
aI1044
aI72
aI1045
aI26
aI3
aI10
aI1053
aI33
aI688
aI999
aI988
aI63
aI560
aI1054
aI72
aI1055
aI8
aI478
aI1056
aI33
aI1057
aI72
aI1041
aag17
a(lp275
I63
aI1058
aI1059
aI63
aI1060
aI17
aI1061
aI72
aI1062
aI408
aI1044
aag17
a(lp276
I10
aI1063
aI1064
aI1065
aI1066
aI567
aI10
aI1067
aI1068
aag17
a(lp277
I58
aI1069
aI17
aI974
aI8
aI1070
aI157
aI1071
aI1072
aag17
a(lp278
I1073
aI133
aI193
aI478
aI1074
aI1075
aI58
aI1076
aI58
aI26
aI133
aI10
aI230
aag17
a(lp279
I1077
aI26
aI805
aI1078
aI17
aI1079
aI1080
aI560
aI1081
aI1082
aI1080
aI1069
aI391
aI2
aI1083
aag17
a(lp280
I607
aI559
aI924
aI1084
aI72
aI1085
aI1086
aI1087
aI1088
aI10
aI40
aI45
aag17
a(lp281
I1012
aI1089
aI178
aI111
aI1090
aI111
aI63
aI1091
aag17
a(lp282
I10
aI1092
aI37
aI67
aI10
aI1093
aI26
aI1094
aag17
a(lp283
I1080
aI1095
aI48
aI1096
aI750
aag17
a(lp284
I10
aI1097
aI1098
aI10
aI1099
aag17
a(lp285
I607
aI1080
aI838
aI924
aI738
aI1100
aI1101
aI300
aI257
aI63
aag17
a(lp286
I661
aI1102
aI3
aI10
aI189
aI619
aI80
aI1103
aI1104
aI661
aI609
aI65
aI178
aI1105
aI10
aI36
aag17
a(lp287
I1080
aI609
aI65
aI1106
aI10
aI1107
aI514
aI553
aI1108
aI1109
aI1110
aI187
aag17
a(lp288
I1111
aI37
aI1112
aI85
aI514
aI130
aI1113
aI59
aI10
aI1114
aI607
aI1115
aI1116
aI223
aI63
aag17
a(lp289
I1117
aI518
aI10
aI1118
aI1119
aI1120
aI1121
aI773
aag17
a(lp290
I1122
aI1123
aI669
aI8
aI848
aI1124
aI514
aI661
aI926
aI1125
aI63
aag17
a(lp291
I1080
aI1126
aI89
aI1127
aI37
aI989
aI1128
aag17
a(lp292
I58
aI65
aI479
aI480
aI17
aI1129
aI1130
aI65
aI58
aI1131
aI31
aag17
a(lp293
I61
aI920
aI25
aI1132
aI72
aI61
aI920
aI1089
aI1110
aI928
aag17
a(lp294
I1080
aI14
aI479
aI193
aI688
aI678
aI1133
aag17
a(lp295
I526
aag17
a(lp296
I1134
aI1135
aI1080
aI390
aI920
aI175
aag17
a(lp297
I1080
aI1089
aI1095
aI17
aI536
aI17
aI637
aI514
aI1080
aI1136
aI1137
aI1138
aI17
aI1139
aag17
a(lp298
I553
aI1140
aI1141
aI17
aI193
aI1142
aI100
aI1143
aI89
aI1122
aI511
aI133
aI10
aI230
aI1144
aI89
aI1080
aI177
aag17
a(lp299
I8
aI1145
aI560
aI633
aI174
aI1146
aI8
aI213
aI85
aI607
aI61
aI1147
aI63
aI918
aI17
aI773
aag17
a(lp300
I1122
aI1001
aI40
aI1148
aI17
aI633
aI1149
aI179
aI141
aI198
aI89
aI140
aI1150
aI1151
aI157
aI178
aI643
aI134
aI17
aI1152
aI335
aag17
a(lp301
I139
aI177
aI1153
aI854
aI326
aI257
aag17
a(lp302
I1154
aI63
aI37
aI964
aI17
aI390
aI1155
aI300
aI257
aI1144
aI72
aI536
aI1156
aI17
aI773
aI1157
aI542
aI1158
aI3
aI8
aI964
aI1159
aI33
aI846
aag17
a(lp303
I63
aI140
aI1160
aI1161
aI72
aI58
aI1162
aI25
aI1163
aag17
a(lp304
I125
aI140
aI10
aI1164
aI1165
aag17
a(lp305
I1122
aI1166
aI178
aI1167
aI80
aI10
aI1165
aI157
aI63
aI140
aI178
aI10
aI882
aI1168
aI17
aI177
aag17
a(lp306
I1169
aI37
aI553
aI902
aI1170
aI3
aI1171
aI1080
aI420
aI17
aI421
aI40
aI1172
aI25
aI840
aI281
aag17
a(lp307
I1173
aI140
aI10
aI156
aI1174
aI542
aI61
aI1175
aI1176
aI334
aI140
aI1177
aI157
aI1178
aI1179
aI72
aI1180
aI1166
aI61
aI177
aI63
aI3
aI10
aI537
aI781
aag17
a(lp308
I1122
aI140
aI1137
aI1181
aI17
aI1182
aI567
aI10
aI1183
aag17
a(lp309
I1184
aI1080
aI852
aI1012
aI8
aI1110
aI1185
aI157
aI1042
aI1006
aag17
a(lp310
I40
aI928
aI203
aI1186
aag17
a(lp311
I1187
aI1188
aI10
aI1189
aag17
a(lp312
I10
aI1190
aI37
aI8
aI848
aI1191
aI257
aI1192
aag17
a(lp313
I1193
aag17
a(lp314
I661
aI1194
aI335
aI8
aI989
aI1195
aI1196
aI1197
aag17
a(lp315
I661
aI1198
aI56
aI33
aI1199
aI568
aI661
aI484
aI17
aI1200
aI1201
aI1202
aag17
a(lp316
I1057
aI8
aI1203
aI33
aI1153
aI1204
aI37
aI957
aI49
aI1080
aI1205
aI1206
aI63
aI609
aI193
aag17
a(lp317
I1080
aI140
aI989
aI1207
aI33
aI553
aI1208
aI312
aI135
aI240
aI514
aI456
aI1080
aI1209
aI193
aI50
aI562
aI17
aI1173
aI553
aI1208
aI140
aag17
a(lp318
I10
aI850
aI1210
aI1211
aI1212
aI157
aI10
aI1213
aI33
aI8
aI1214
aI1215
aag17
a(lp319
I688
aI37
aI8
aI627
aI1216
aag17
a(lp320
I37
aI63
aI1008
aag17
a(lp321
I10
aI1217
aI58
aI99
aI17
aI1218
aI37
aI531
aI1219
aI1220
aag17
a(lp322
I1221
aI502
aI89
aI637
aag17
a(lp323
I1122
aI1222
aI1223
aI17
aI669
aI3
aI8
aI1224
aI1225
aag17
a(lp324
I1080
aI1226
aI65
aI46
aI1227
aI1228
aI1229
aI72
aI1080
aI838
aI839
aI1180
aag17
a(lp325
I1154
aI133
aI559
aI1069
aI17
aI177
aI37
aI1230
aI633
aI132
aI1231
aI33
aI1232
aI72
aI1233
aI63
aI1234
aI17
aI1076
aI89
aI860
aI1235
aI568
aI1090
aI734
aI133
aag17
a(lp326
I1236
aI26
aI1110
aI900
aI157
aI61
aI26
aI1237
aI72
aI26
aI178
aI1238
aag17
a(lp327
I8
aI1239
aI1240
aI37
aI178
aI187
aag17
a(lp328
I1241
aI140
aI1242
aI568
aI1080
aI1243
aI17
aI10
aI1244
aI446
aag17
a(lp329
I1023
aI58
aI1245
aI36
aI464
aI174
aI1023
aI58
aI1246
aI157
aI1241
aI17
aI918
aI1192
aag17
a(lp330
I1247
aI894
aI193
aI8
aI1248
aI49
aI8
aI1249
aag17
a(lp331
I688
aI37
aI10
aI407
aI1153
aI987
aI1080
aI14
aI193
aI1057
aI72
aI1080
aI1136
aI1250
aI17
aI1200
aI1251
aI83
aag17
a(lp332
I838
aI1252
aI80
aI10
aI1253
aI1254
aag17
a(lp333
I1080
aI1255
aI314
aI1256
aI1257
aI72
aI1084
aI1258
aag17
a(lp334
I10
aI969
aI37
aI3
aI1259
aI33
aI10
aI1260
aag17
a(lp335
I607
aI1261
aI19
aI1262
aI26
aI1263
aI139
aI177
aI61
aI1081
aI1261
aI19
aI17
aI267
aag17
a(lp336
I106
aI46
aI590
aI1264
aI157
aI1265
aag17
a(lp337
I1266
aI1156
aI1267
aI1080
aI14
aI1182
aI607
aI10
aI969
aI130
aI1268
aag17
a(lp338
I8
aI1261
aI1269
aI72
aI8
aI1270
aI1271
aI1272
aI8
aI1273
aI3
aI10
aI35
aI33
aI10
aI978
aI72
aI1274
aI16
aI1275
aag17
a(lp339
I10
aI1276
aI1277
aI1278
aI10
aI1225
aag17
a(lp340
I1080
aI852
aI1080
aI14
aI1279
aI10
aI1280
aI153
aI174
aI1080
aI14
aI1281
aI10
aI1282
aI2
aag17
a(lp341
I10
aI1283
aI227
aI688
aI447
aI72
aI10
aI1283
aI80
aI553
aI1284
aI26
aI4
aI444
aI562
aI257
aI84
aI632
aag17
a(lp342
I1122
aI1166
aI1150
aI581
aI17
aI752
aI669
aag17
a(lp343
I1080
aI1136
aI1285
aI553
aI256
aI1163
aI1080
aI1089
aI1095
aI1286
aag17
a(lp344
I1287
aI37
aI1288
aag17
a(lp345
I10
aI1289
aI1290
aI10
aI1291
aag17
a(lp346
I10
aI1292
aI1293
aI1294
aI17
aI670
aI1255
aag17
a(lp347
I1080
aI1295
aI1182
aI10
aI134
aI4
aI4
aI4
aI4
aI174
aI4
aI40
aI27
aI46
aI80
aI1296
aag17
a(lp348
I661
aI60
aI661
aI140
aI178
aI25
aI1297
aI1298
aI1299
aI19
aI1300
aI669
aI25
aag17
a(lp349
I1301
aI920
aI8
aI512
aI616
aI33
aI1302
aag17
a(lp350
I661
aI926
aI1095
aI17
aI536
aI17
aI10
aI1303
aI1163
aI661
aI1243
aI1304
aag17
a(lp351
I1305
aI1246
aI1306
aI33
aI10
aI1307
aag17
a(lp352
I1122
aI1308
aI669
aI17
aI326
aI1156
aI141
aI495
aag17
a(lp353
I1080
aI1136
aI1116
aI17
aI622
aI652
aI1309
aI50
aI170
aI14
aI193
aI1310
aI1311
aag17
a(lp354
I1122
aI620
aI1150
aI1312
aI1313
aag17
a(lp355
I10
aI393
aI1314
aI1315
aI3
aI1012
aI1316
aag17
a(lp356
I10
aI1317
aI203
aI1318
aI80
aI10
aI1319
aI63
aI140
aI8
aI1320
aI1321
aag17
a(lp357
I542
aI1080
aI140
aI1322
aI1080
aI484
aI8
aI153
aI841
aI1323
aI1324
aI80
aI553
aI346
aag17
a(lp358
I1080
aI1325
aI1326
aI63
aI1327
aI1328
aag17
a(lp359
I1329
aI37
aI1295
aI2
aI829
aI339
aI559
aag17
a(lp360
I25
aI203
aI382
aI56
aI714
aI3
aI10
aI1330
aI1331
aI10
aI1332
aI203
aI1333
aag17
a(lp361
I1080
aI1334
aI17
aI633
aI1335
aI89
aI661
aI140
aI1325
aI1336
aag17
a(lp362
I1080
aI1136
aI479
aI141
aI1337
aI80
aI1338
aag17
a(lp363
I1147
aI1339
aI752
aI559
aI214
aI652
aI1340
aag17
a(lp364
I1122
aI1341
aI10
aI969
aI257
aI669
aI1299
aI173
aI423
aI72
aI1342
aI1163
aI1343
aI63
aag17
a(lp365
I607
aI10
aI1344
aI1345
aI72
aI10
aI1346
aI1347
aI484
aI861
aI609
aI61
aI622
aI652
aI944
aI72
aI1348
aI866
aI157
aI559
aag17
a(lp366
I25
aI140
aI531
aI800
aI71
aI3
aI10
aI785
aI1130
aI1166
aI61
aI65
aI1199
aI17
aI536
aI17
aI10
aI960
aag17
a(lp367
I407
aI1103
aI3
aI27
aI1172
aI134
aI1080
aI1300
aI8
aI1349
aI1350
aI1282
aI1351
aI1352
aI1353
aI214
aI8
aI1354
aI1355
aag17
a(lp368
I501
aI1080
aI839
aI1356
aI1357
aI1358
aI1359
aI1360
aI1361
aI1174
aI63
aI609
aI1362
aI924
aI1363
aI1361
aag17
a(lp369
I63
aI926
aI72
aI61
aI838
aI1364
aI1113
aI1365
aI177
aI63
aI1366
aag17
a(lp370
I1080
aI1095
aI17
aI1279
aI8
aI1367
aI514
aI839
aI63
aI1368
aI1369
aI1339
aag17
a(lp371
I58
aI65
aI8
aI1052
aI33
aI1370
aI3
aI1371
aag17
a(lp372
I1372
aI557
aI1373
aI141
aI135
aI1374
aag17
a(lp373
I1122
aI1
aI1375
aI214
aI1376
aI1377
aI1122
aI502
aI178
aI924
aI1378
aag17
a(lp374
I1287
aI37
aI1288
aag17
a(lp375
I1057
aI8
aI1203
aI33
aI1153
aI1204
aI37
aI957
aI49
aI1080
aI1205
aI1206
aI63
aI609
aI193
aag17
a(lp376
I1241
aI140
aI1242
aI568
aI1080
aI1243
aI17
aI10
aI1244
aI446
aag17
a(lp377
I1266
aI1156
aI1267
aI1080
aI14
aI1182
aI607
aI10
aI969
aI130
aI1268
aag17
a(lp378
I1154
aI63
aI37
aI964
aI17
aI390
aI1155
aI300
aI257
aI1144
aI72
aI536
aI1156
aI17
aI773
aI1157
aI542
aI1158
aI3
aI8
aI964
aI1159
aI33
aI846
aag17
a(lp379
I542
aI1080
aI140
aI1322
aI1080
aI484
aI8
aI153
aI841
aI1323
aI1324
aI80
aI553
aI346
aag17
a(lp380
I1080
aI1325
aI1326
aI63
aI1327
aI1328
aag17
a(lp381
I1122
aI1
aI1375
aI214
aI1376
aI1377
aI1122
aI502
aI178
aI924
aI1378
aag17
a(lp382
I1122
aI1166
aI1150
aI581
aI17
aI752
aI669
aag17
a(lp383
I607
aI1080
aI838
aI924
aI738
aI1100
aI1101
aI300
aI257
aI63
aag17
a(lp384
I10
aI1317
aI203
aI1318
aI80
aI10
aI1319
aI63
aI140
aI8
aI1320
aI1321
aag17
a(lp385
I1372
aI557
aI1373
aI141
aI135
aI1374
aag17
a(lp386
I10
aI1190
aI37
aI8
aI848
aI1191
aI257
aI1192
aag17
a(lp387
I1122
aI140
aI1137
aI1181
aI17
aI1182
aI567
aI10
aI1183
aag17
a(lp388
I1080
aI1334
aI17
aI633
aI1335
aI89
aI661
aI140
aI1325
aI1336
aag17
a(lp389
I10
aI1289
aI1290
aI10
aI1291
aag17
a(lp390
I1301
aI920
aI8
aI512
aI616
aI33
aI1302
aag17
a(lp391
I661
aI1102
aI3
aI10
aI189
aI619
aI80
aI1103
aI1104
aI661
aI609
aI65
aI178
aI1105
aI10
aI36
aag17
a(lp392
I1080
aI1226
aI65
aI46
aI1227
aI1228
aI1229
aI72
aI1080
aI838
aI839
aI1180
aag17
a(lp393
I8
aI1261
aI1269
aI72
aI8
aI1270
aI1271
aI1272
aI8
aI1273
aI3
aI10
aI35
aI33
aI10
aI978
aI72
aI1274
aI16
aI1275
aag17
a(lp394
I10
aI1063
aI1064
aI1065
aI1066
aI567
aI10
aI1067
aI1068
aag17
a(lp395
I25
aI140
aI531
aI800
aI71
aI3
aI10
aI785
aI1130
aI1166
aI61
aI65
aI1199
aI17
aI536
aI17
aI10
aI960
aag17
a(lp396
I1329
aI37
aI1295
aI2
aI829
aI339
aI559
aag17
a(lp397
I1305
aI1246
aI1306
aI33
aI10
aI1307
aag17
a(lp398
I10
aI1276
aI1277
aI1278
aI10
aI1225
aag17
a(lp399
I1122
aI1222
aI1223
aI17
aI669
aI3
aI8
aI1224
aI1225
aag17
a(lp400
I1073
aI133
aI193
aI478
aI1074
aI1075
aI58
aI1076
aI58
aI26
aI133
aI10
aI230
aag17
a(lp401
I63
aI140
aI1160
aI1161
aI72
aI58
aI1162
aI25
aI1163
aag17
a(lp402
I1080
aI609
aI65
aI1106
aI10
aI1107
aI514
aI553
aI1108
aI1109
aI1110
aI187
aag17
a(lp403
I688
aI37
aI8
aI627
aI1216
aag17
a(lp404
I661
aI60
aI661
aI140
aI178
aI25
aI1297
aI1298
aI1299
aI19
aI1300
aI669
aI25
aag17
a(lp405
I106
aI46
aI590
aI1264
aI157
aI1265
aag17
a(lp406
I607
aI559
aI924
aI1084
aI72
aI1085
aI1086
aI1087
aI1088
aI10
aI40
aI45
aag17
a(lp407
I1012
aI1089
aI178
aI111
aI1090
aI111
aI63
aI1091
aag17
a(lp408
I1122
aI1308
aI669
aI17
aI326
aI1156
aI141
aI495
aag17
a(lp409
I58
aI65
aI8
aI1052
aI33
aI1370
aI3
aI1371
aag17
a(lp410
I1193
aag17
a(lp411
I1080
aI1136
aI479
aI141
aI1337
aI80
aI1338
aag17
a(lp412
I10
aI1292
aI1293
aI1294
aI17
aI670
aI1255
aag17
a(lp413
I1173
aI140
aI10
aI156
aI1174
aI542
aI61
aI1175
aI1176
aI334
aI140
aI1177
aI157
aI1178
aI1179
aI72
aI1180
aI1166
aI61
aI177
aI63
aI3
aI10
aI537
aI781
aag17
a(lp414
I607
aI1261
aI19
aI1262
aI26
aI1263
aI139
aI177
aI61
aI1081
aI1261
aI19
aI17
aI267
aag17
a(lp415
I10
aI393
aI1314
aI1315
aI3
aI1012
aI1316
aag17
a(lp416
I1154
aI133
aI559
aI1069
aI17
aI177
aI37
aI1230
aI633
aI132
aI1231
aI33
aI1232
aI72
aI1233
aI63
aI1234
aI17
aI1076
aI89
aI860
aI1235
aI568
aI1090
aI734
aI133
aag17
a(lp417
I1080
aI852
aI1080
aI14
aI1279
aI10
aI1280
aI153
aI174
aI1080
aI14
aI1281
aI10
aI1282
aI2
aag17
a(lp418
I661
aI1198
aI56
aI33
aI1199
aI568
aI661
aI484
aI17
aI1200
aI1201
aI1202
aag17
a(lp419
I838
aI1252
aI80
aI10
aI1253
aI1254
aag17
a(lp420
I501
aI1080
aI839
aI1356
aI1357
aI1358
aI1359
aI1360
aI1361
aI1174
aI63
aI609
aI1362
aI924
aI1363
aI1361
aag17
a(lp421
I63
aI926
aI72
aI61
aI838
aI1364
aI1113
aI1365
aI177
aI63
aI1366
aag17
a(lp422
I661
aI1194
aI335
aI8
aI989
aI1195
aI1196
aI1197
aag17
a(lp423
I1122
aI1341
aI10
aI969
aI257
aI669
aI1299
aI173
aI423
aI72
aI1342
aI1163
aI1343
aI63
aag17
a(lp424
I1080
aI140
aI989
aI1207
aI33
aI553
aI1208
aI312
aI135
aI240
aI514
aI456
aI1080
aI1209
aI193
aI50
aI562
aI17
aI1173
aI553
aI1208
aI140
aag17
a(lp425
I1147
aI1339
aI752
aI559
aI214
aI652
aI1340
aag17
a(lp426
I1080
aI1095
aI17
aI1279
aI8
aI1367
aI514
aI839
aI63
aI1368
aI1369
aI1339
aag17
a(lp427
I25
aI203
aI382
aI56
aI714
aI3
aI10
aI1330
aI1331
aI10
aI1332
aI203
aI1333
aag17
a(lp428
I1236
aI26
aI1110
aI900
aI157
aI61
aI26
aI1237
aI72
aI26
aI178
aI1238
aag17
a(lp429
I553
aI1140
aI1141
aI17
aI193
aI1142
aI100
aI1143
aI89
aI1122
aI511
aI133
aI10
aI230
aI1144
aI89
aI1080
aI177
aag17
a(lp430
I1080
aI14
aI479
aI193
aI688
aI678
aI1133
aag17
a(lp431
I526
aag17
a(lp432
I1134
aI1379
aI1080
aI390
aI920
aI175
aag17
a(lp433
I1187
aI1188
aI10
aI1189
aag17
a(lp434
I1122
aI1166
aI178
aI1167
aI80
aI10
aI1165
aI157
aI63
aI140
aI178
aI10
aI882
aI1168
aI17
aI177
aag17
a(lp435
I37
aI63
aI1008
aag17
a(lp436
I1117
aI518
aI10
aI1118
aI1119
aI1120
aI1121
aI773
aag17
a(lp437
I139
aI177
aI1153
aI854
aI326
aI257
aag17
a(lp438
I1080
aI1255
aI314
aI1256
aI1257
aI72
aI1084
aI1258
aag17
a(lp439
I1169
aI37
aI553
aI902
aI1170
aI3
aI1171
aI1080
aI420
aI17
aI421
aI40
aI1172
aI25
aI840
aI281
aag17
a(lp440
I1247
aI894
aI193
aI8
aI1248
aI49
aI8
aI1249
aag17
a(lp441
I40
aI928
aI203
aI1186
aag17
a(lp442
I1122
aI620
aI1150
aI1312
aI1313
aag17
a(lp443
I10
aI1092
aI37
aI67
aI10
aI1093
aI26
aI1094
aag17
a(lp444
I58
aI65
aI479
aI480
aI17
aI1129
aI1130
aI65
aI58
aI1131
aI31
aag17
a(lp445
I661
aI926
aI1095
aI17
aI536
aI17
aI10
aI1303
aI1163
aI661
aI1243
aI1304
aag17
a(lp446
I1080
aI1136
aI1116
aI17
aI622
aI652
aI1309
aI50
aI170
aI14
aI193
aI1310
aI1311
aag17
a(lp447
I1122
aI1001
aI40
aI1148
aI17
aI633
aI1149
aI179
aI141
aI198
aI89
aI140
aI1150
aI1151
aI157
aI178
aI643
aI134
aI17
aI1152
aI335
aag17
a(lp448
I1111
aI37
aI1112
aI85
aI514
aI130
aI1113
aI59
aI10
aI1114
aI607
aI1115
aI1116
aI223
aI63
aag17
a(lp449
I1080
aI1095
aI48
aI1096
aI750
aag17
a(lp450
I58
aI1069
aI17
aI974
aI8
aI1070
aI157
aI1071
aI1072
aag17
a(lp451
I10
aI1283
aI227
aI688
aI447
aI72
aI10
aI1283
aI80
aI553
aI1284
aI26
aI4
aI444
aI562
aI257
aI84
aI632
aag17
a(lp452
I61
aI920
aI25
aI1132
aI72
aI61
aI920
aI1089
aI1110
aI928
aag17
a(lp453
I3
aI1380
aI17
aI1013
aI8
aI987
aI1381
aI1382
aI174
aI1009
aI1383
aI434
aI214
aI1110
aI1384
aI72
aI1385
aI37
aI1386
aI542
aI1387
aI688
aI1388
aI1389
aI695
aI63
aI560
aI1
aI1390
aI1391
aI72
aI1020
aI1392
aI1384
aag17
a(lp454
I157
aI132
aI1009
aI1393
aI89
aI37
aI3
aI10
aI1394
aI33
aI8
aI1395
aI63
aI502
aI8
aI1110
aI1396
aI33
aI1397
aI1006
aI72
aI1387
aI1398
aI89
aI633
aI1399
aag17
a(lp455
I434
aI89
aI37
aI1400
aI3
aI133
aI1401
aI174
aI214
aI10
aI537
aI1124
aI33
aI75
aI645
aI1402
aI560
aI1325
aI193
aI1403
aI100
aI688
aI1000
aag17
a(lp456
I1104
aI111
aI848
aI111
aI10
aI1384
aI33
aI10
aI434
aI37
aI1404
aI72
aI1405
aI986
aI987
aI988
aI560
aI633
aI10
aI1406
aI33
aI1027
aI990
aag17
a(lp457
I894
aI49
aI643
aI17
aI189
aI1407
aI157
aI1044
aI174
aI1045
aI72
aI1408
aI676
aI1409
aI26
aI10
aI91
aI835
aI1410
aI157
aI50
aI1411
aI8
aI645
aI174
aI1412
aI1210
aI193
aI99
aI3
aI1027
aI37
aI1413
aI80
aI1414
aI1415
aag17
a(lp458
I1080
aI1416
aI669
aI10
aI1417
aag17
a(lp459
I1080
aI1416
aI669
aI10
aI244
aI1418
aag17
a(lp460
I221
aI1419
aI920
aI10
aI858
aI1420
aag17
a(lp461
I221
aI1421
aI1422
aI10
aI1423
aI1424
aag17
a(lp462
I1425
aI1426
aI10
aI1070
aI1427
aag17
a(lp463
I688
aI37
aI1428
aI1429
aag17
a(lp464
I221
aI1421
aI838
aI816
aI8
aI1430
aI1431
aI153
aag17
a(lp465
I10
aI1421
aI65
aI8
aI1432
aI1433
aI572
aI10
aI1434
aI1435
aag17
a(lp466
I1122
aI1436
aI65
aI8
aI1437
aI994
aag17
a(lp467
I44
aI5
aI5
aI1438
aag17
a(lp468
I1080
aI920
aI38
aI106
aI3
aI553
aI1439
aag17
a(lp469
I1080
aI1069
aI27
aI44
aI1440
aag17
a(lp470
I25
aI37
aI8
aI1441
aI214
aI10
aI1442
aI1443
aag17
a(lp471
I39
aI1444
aI662
aI1297
aI3
aI10
aI1445
aag17
a(lp472
I661
aI130
aI8
aI1446
aI33
aI4
aI5
aI38
aI1447
aag17
a(lp473
I10
aI1448
aI140
aI111
aI135
aI111
aI44
aI46
aI1449
aag17
a(lp474
I10
aI1450
aI130
aI40
aI44
aI246
aI4
aI40
aI77
aI72
aI5
aI38
aI1451
aI525
aag17
a(lp475
I1080
aI479
aI1300
aI553
aI1452
aI1453
aI10
aI387
aI33
aI38
aI39
aag17
a(lp476
I1454
aI40
aI45
aI172
aI37
aI964
aI49
aI1454
aI27
aI45
aI106
aag17
a(lp477
I1455
aI1080
aI924
aI1456
aI1457
aI1458
aI48
aI49
aI1456
aI44
aag17
a(lp478
I553
aI1459
aI37
aI38
aI45
aI46
aI44
aI56
aI33
aI4
aI5
aag17
a(lp479
I661
aI130
aI8
aI1459
aI33
aI38
aI45
aI172
aI172
aI56
aI33
aI4
aI5
aag17
a(lp480
I1080
aI1069
aI8
aI1460
aI33
aI46
aI56
aI33
aI172
aag17
a(lp481
I1080
aI177
aI178
aI839
aI125
aI338
aI688
aI1461
aI14
aI1462
aI695
aI1080
aI65
aI570
aI1463
aI72
aI1464
aI1192
aI111
aI338
aag17
a(lp482
I1080
aI14
aI193
aI1465
aI607
aI688
aI502
aI178
aI536
aI338
aag17
a(lp483
I1080
aI1466
aI607
aI1467
aI14
aI1468
aI1125
aI688
aag17
a(lp484
I1469
aI1080
aI1470
aI1471
aI1472
aag17
a(lp485
I1473
aI40
aI40
aI5
aI464
aI531
aI1474
aI33
aI50
aI1475
aI1461
aI1476
aag17
a(lp486
I479
aI503
aI479
aI37
aI1173
aI661
aI859
aI1339
aag17
a(lp487
I10
aI1477
aI33
aI107
aI37
aI72
aI63
aI1478
aI1479
aI279
aI4
aI5
aI5
aag17
atp488
b.