(lp0
(lp1
S'Only one in 10 Americans possess a passport.\n'
p2
acnumpy.core.multiarray
_reconstruct
p3
(cnumpy
ndarray
p4
(I0
tp5
S'b'
p6
tp7
Rp8
(I1
(I2
tp9
cnumpy
dtype
p10
(S'i8'
p11
I0
I1
tp12
Rp13
(I3
S'<'
p14
NNNI-1
I-1
I0
tp15
bI00
S'\x01\x00\x00\x00\x00\x00\x00\x00\x00\x00\x00\x00\x00\x00\x00\x00'
p16
tp17
baa(lp18
S'The recent financial crisis will push up to 100 million people in developing countries into absolute poverty.\n'
p19
ag8
aa(lp20
S'There are 3 million Zimbabwean refugees in South Africa.\n'
p21
ag8
aa(lp22
S'The size of India\xe2\x80\x99s middle class is 300 million people.\n'
p23
ag8
aa(lp24
S'The 1998-2002 war in the DRC cost 5.4 million lives, more than any conflict since World War II. \n'
p25
ag8
aa(lp26
S'Nine out of ten people we asked said they preferred it.\n'
p27
ag8
aa(lp28
S'Statisticians have proven a clear correlation between Pona cream and smoother skin.\n'
p29
ag8
aa(lp30
S'One out of every seven minutes spent online is on Facebook\n'
p31
ag8
aa(lp32
S'340 million tweets are sent each and every day\n'
p33
ag8
aa(lp34
S'Pinterest is the social network that skews most heavily towards female users, whilst Google+ is predominately used by men\n'
p35
ag8
aa(lp36
S'300 million pictures are uploaded to Facebook every day via Instagram\n'
p37
ag8
aa(lp38
S'61 percent of LinkedIn members use it as their primary professional networking site\n'
p39
ag8
aa(lp40
S'Overall during the quarter, revenue rose 5.2% to $1.31 billion, helped by a change in how the company reports revenue.\n'
p41
ag8
aa(lp42
S'Government debt has surged to an all-time high of $19 trillion, almost 200 times where it was at the end of World War 2\n'
p43
ag8
aa(lp44
S'Economic growth is low and labor-force participation has plunged\n'
p45
ag8
aa(lp46
S'Millennials live paycheck to paycheck\n'
p47
ag8
aa(lp48
S'Car airbags kill 1 person for every 22 lives that they save.\n'
p49
ag8
aa(lp50
S'Only one in three children are physically active every day.\n'
p51
ag8
aa(lp52
S'Less than 5% of adults participate in 30 minutes of physical activity each day; only one in three adults receive the recommended amount of physical activity each week.\n'
p53
ag8
aa(lp54
S'Only 35 \xe2\x80\x93 44% of adults 75 years or older are physically active, and 28-34% of adults ages 65-74 are physically active.\n'
p55
ag8
aa(lp56
S'More than 80% of adults do not meet the guidelines for both aerobic and muscle-strengthening activities, and more than 80% of adolescents do not do enough aerobic physical activity to meet the guidelines for youth.\n'
p57
ag8
aa(lp58
S'In 2013, research found adults in the following states to be most likely to report exercising 3 or more days a week for at least 30 minutes: Vermont (65.3%), Hawaii (62.2%), Montana (60.1%), Alaska (60.1%). The least likely were Delaware (46.5%), West Virginia (47.1%) and Alabama (47.5%). The national average for regular exercise is 51.6%.6\n'
p59
ag8
aa(lp60
S'Nationwide, 25.6% of persons with a disability reported being physically inactive during a usual week, compared to 12.8% of those without a disability.\n'
p61
ag8
aa(lp62
S'Only about one in five homes have parks within a half-mile, and about the same number have a fitness or recreation center within that distance.5\n'
p63
ag8
aa(lp64
S'28.0% of Americans, or 80.2 million people, aged six and older are physically inactive.\n'
p65
ag8
aa(lp66
S'Nearly one-third of high school students play video or computer games for 3 or more hours on an average school day.\n'
p67
ag8
aa(lp68
S'Typical American diets exceed the recommended intake levels or limits in four categories: calories from solid fats and added sugars; refined grains; sodium; and saturated fat.\n'
p69
ag8
aa(lp70
S'Americans eat less than the recommended amounts of vegetables, fruits, whole-grains, dairy products, and oils.\n'
p71
ag8
aa(lp72
S'About 90% of Americans eat more sodium than is recommended for a healthy diet.\n'
p73
ag8
aa(lp74
S'Reducing the sodium Americans eat by 1,200mg per day on could save up to $20 billion a year in medical costs.\n'
p75
ag8
aa(lp76
S'Food available for consumption increased in all major food categories from 1970 to 2008. Average daily calories per person in the marketplace increased approximately 600 calories.\n'
p77
ag8
aa(lp78
S'Since the 1970s, the number of fast food restaurants has more than doubled.\n'
p79
ag8
aa(lp80
S'More than 23 million Americans, including 6.5 million children, live in food deserts \xe2\x80\x93 areas that are more than a mile away from a supermarket.\n'
p81
ag8
aa(lp82
S'In 2008, an estimated 49.1 million people, including 16.7 million children, experienced food insecurity (limited availability to safe and nutritionally adequate foods) multiple times throughout the year.\n'
p83
ag8
aa(lp84
S'In 2013, residents of the following states were most likely to report eating at least five servings of vegetables four or more days per week: Vermont (68.7%), Montana (63.0%) and Washington (61.8%). The least likely were Oklahoma (52.3%), Louisiana (53.3%) and Missouri (53.8%). The national average for regular produce consumption is 57.7%.\n'
p85
ag8
aa(lp86
S'Empty calories from added sugars and solid fats contribute to 40% of total daily calories for 2\xe2\x80\x9318 year olds and half of these empty calories come from six sources: soda, fruit drinks, dairy desserts, grain desserts, pizza, and whole milk.\n'
p87
ag8
aa(lp88
S'US adults consume an average of 3,400 mg/day [of sodium], well above the current federal guideline of less than 2,300 mg daily.\n'
p89
ag8
aa(lp90
S'Food safety awareness goes hand-in-hand with nutrition education. In the United States, food-borne agents affect 1 out of 6 individuals and cause approximately 48 million illnesses, 128,000 hospitalizations, and 3,000 deaths each year.\n'
p91
ag8
aa(lp92
S'US per capita consumption of total fat increased from approximately 57 pounds in 1980 to 78 pounds in 2009 with the highest consumption being 85 pounds in 2005.\n'
p93
ag8
aa(lp94
S'The US percentage of food-insecure households, those with limited or uncertain ability to acquire acceptable foods in socially acceptable ways, rose from 11% to 15% between 2005 and 2009.\n'
p95
ag8
aa(lp96
S'12.5 million (16.9%) children and adolescents are obese.\n'
p97
ag8
aa(lp98
S'Recent reports project that by 2030, half of all adults (115 million adults) in the United States will be obese.\n'
p99
ag8
aa(lp100
S'For children with disabilities, obesity rates are approximately 38% higher than for children without disabilities.\n'
p101
ag8
aa(lp102
S'Obesity rates for adults with disabilities are approximately 57% higher than for adults without disabilities.\n'
p103
ag8
aa(lp104
S'Nearly 45% of children living in poverty are overweight or obese compared with 22% of children living in households with incomes four times the poverty level.\n'
p105
ag8
aa(lp106
S'Almost 40% of Black and Latino youth ages 2 to 19 are overweight or obese compared with only 29% of White youth.\n'
p107
ag8
aa(lp108
S'Obesity among children in the United States has remained flat - at around 17% - in 2003-2004 and 2011-2012.\n'
p109
ag8
aa(lp110
S'Between 2003 and 2012, obesity among children between 2 and 5 years of age has declined from 14% to 8% - a 43% decrease in just under a decade.\n'
p111
ag8
aa(lp112
S'Obesity rates in children 6 to 11 years old have decreased from 18.8% in 2003-2004 to 17.7% in 2011-2012; obesity rates for children 12 to 19 years old have increased from 17.4% to 20.5% in the same time period.\n'
p113
ag8
aa(lp114
S'Those who are obese have medical costs that are $1,429 more than those of normal weight on average (roughly 42% higher).\n'
p115
ag8
aa(lp116
S'The internet has 3.17 billion users\n'
p117
ag8
aa(lp118
S'There are 2.3 billion active social media users\n'
p119
ag8
aa(lp120
S'91% of retail brands use 2 or more social media channels\n'
p121
ag8
aa(lp122
S'Internet users have an average of 5.54 social media accounts\n'
p123
ag8
aa(lp124
S'Social media users have risen by 176 million in the last year\n'
p125
ag8
aa(lp126
S'1 million new active mobile social users are added every day. That\xe2\x80\x99s 12 each second.\n'
p127
ag8
aa(lp128
S'Facebook Messenger and Whatsapp handle 60 billion messages a day. \n'
p129
ag8
aa(lp130
S'Social networks earned an estimated $8.3 billion from advertising in 2015\n'
p131
ag8
aa(lp132
S'38% of organizations plan to spend more than 20% of their total advertising budgets on social media channels in 2015, up from 13% a year ago. \n'
p133
ag8
aa(lp134
S'Only 20 Fortune 500 companies actually engage with their customers on Facebook, while 83% have a presence on Twitter. \n'
p135
ag8
aa(lp136
S'People aged 55-64 are more than twice as likely to engage with branded content than those 28 or younger. \n'
p137
ag8
aa(lp138
S'96% of the people that discuss brands online do not follow those brands\xe2\x80\x99 owned profiles. \n'
p139
ag8
aa(lp140
S'78 percent of people who complain to a brand via Twitter expect a response within an hour. \n'
p141
ag8
aa(lp142
S'On WordPress alone, 56 million blog posts are published every month\n'
p143
ag8
aa(lp144
S'A 2011 study by AOL/Nielsen showed that 27 million pieces of content were shared every day, and today 3.2 billion images are shared each day. \n'
p145
ag8
aa(lp146
S'The top 3 content marketing tactics are blogging (65%); social media (64%); and case studies (64%)\n'
p147
ag8
aa(lp148
S'Facebook now sees 8 billion average daily video views from 500 million users\n'
p149
ag8
aa(lp150
S'Snapchat users watch 6 billion videos every day\n'
p151
ag8
aa(lp152
S'US adults spend an average of 1 hour, 16 minutes each day watching video on digital devices\n'
p153
ag8
aa(lp154
S'78% of people watch online videos every week, 55% watch every day\n'
p155
ag8
aa(lp156
S'Google processes 100 billion searches a month\n'
p157
ag8
aa(lp158
S'That\xe2\x80\x99s an average of 40,000 search queries every second\n'
p159
ag8
aa(lp160
S'89.3% of all internet searches are carried out by Google\n'
p161
ag8
aa(lp162
S'Those searches are carried out by 1.17 billion unique users\n'
p163
ag8
aa(lp164
S'Every day, 16 to 20% of that day\xe2\x80\x99s queries have never been asked before\n'
p165
ag8
aa(lp166
S'Google has answered 450 billion unique queries since 2003\n'
p167
ag8
aa(lp168
S'More than half of Google\xe2\x80\x99s searches come from mobile devices\n'
p169
ag8
aa(lp170
S'By 2014, Google had indexed 30,000,000,000,000 pages of the internet\n'
p171
ag8
aa(lp172
S'To carry out all these searches, Google\xe2\x80\x99s data centre uses 0.01% of worldwide electricity\n'
p173
ag8
aa(lp174
S'Facebook adds 500,000 new users every day; 6 new profiles every second\n'
p175
ag8
aa(lp176
S'72% of all online US adults visit Facebook at least once a month\n'
p177
ag8
aa(lp178
S'The average (mean) number of friends is 338, and the median (midpoint) number of friends is 200\n'
p179
ag8
aa(lp180
S'Half of internet users who do not use Facebook themselves live with someone who does\n'
p181
ag8
aa(lp182
S'Of those, 24% say that they look at posts or photos on that person\xe2\x80\x99s account\n'
p183
ag8
aa(lp184
S'There are an estimated 81 million fake Facebook profiles\n'
p185
ag8
aa(lp186
S'The most popular page is Facebook for Every Phone, with 509,772,152 likes\n'
p187
ag8
aa(lp188
S'There are 40 million active small business Pages\n'
p189
ag8
aa(lp190
S'But only 2 million of those businesses pay for advertising\n'
p191
ag8
aa(lp192
S'Facebook accounts for 62% of social logins made by consumers to sign into the apps and websites of publishers and brands\n'
p193
ag8
aa(lp194
S'500 million people visit Twitter each month without logging in\n'
p195
ag8
aa(lp196
S'There is a total of 1.3 billion accounts, but only 320 million are active\n'
p197
ag8
aa(lp198
S'Of those, 44% made an account and left before ever sending a Tweet\n'
p199
ag8
aa(lp200
S'The average Twitter user has 208 followers\n'
p201
ag8
aa(lp202
S'But 391 million accounts have no followers at all\n'
p203
ag8
aa(lp204
S'There are 500 million Tweets sent each day. That\xe2\x80\x99s 6,000 Tweets every second\n'
p205
ag8
aa(lp206
S'Twitter\xe2\x80\x99s top 5 markets (countries) account for 50% of all Tweets\n'
p207
ag8
aa(lp208
S'It took 3 years, 2 months and 1 day to go from the first Tweet to the billionth\n'
p209
ag8
aa(lp210
S'65.8% of US companies with 100+ employees use Twitter for marketing\n'
p211
ag8
aa(lp212
S'77% of Twitter users feel more positive about a brand when their Tweet has been replied to\n'
p213
ag8
aa(lp214
S'300 hours of video are uploaded to Youtube every minute\n'
p215
ag8
aa(lp216
S'There are 3.25 billion hours of video watched each month\n'
p217
ag8
aa(lp218
S'More than half of YouTube views come from mobile devices\n'
p219
ag8
aa(lp220
S'The average mobile viewing session lasts more than 40 minutes\n'
p221
ag8
aa(lp222
S'The user submitted video with the most views is \xe2\x80\x9cCharlie bit my finger\xe2\x80\x9d, with 834,956,899 views\n'
p223
ag8
aa(lp224
S'On average, there are 1,000,000,000 mobile video views per day\n'
p225
ag8
aa(lp226
S'In 2014, the most searched term was music. The second was Minecraft\n'
p227
ag8
aa(lp228
S'9% of U.S small businesses use Youtube\n'
p229
ag8
aa(lp230
S'You can navigate YouTube in a total of 76 different languages (covering 95% of the Internet population)\n'
p231
ag8
aa(lp232
S'There are 400 million Monthly Active Users on Instagram\n'
p233
ag8
aa(lp234
S'Over 80 million photos are uploaded each day\n'
p235
ag8
aa(lp236
S'There are 3.5 billion Instagram Likes per day\n'
p237
ag8
aa(lp238
S'More than 40 billion photos have been shared so far\n'
p239
ag8
aa(lp240
S'90 percent of Instagram users are younger than 35\n'
p241
ag8
aa(lp242
S'When Instagram introduced videos, more than 5 million were shared in 24 hours\n'
p243
ag8
aa(lp244
S'Pizza is the most popular Instagrammed food, behind sushi and steak\n'
p245
ag8
aa(lp246
S'32% of US teens cite Instagram as their favourite social network\n'
p247
ag8
aa(lp248
S'176 million Pinterest accounts have been registered\n'
p249
ag8
aa(lp250
S'But only 100 million are active each month\n'
p251
ag8
aa(lp252
S'42% of all online women use the platform\n'
p253
ag8
aa(lp254
S'The best time to Pin is Saturday from 8pm-11pm\n'
p255
ag8
aa(lp256
S'In 2014, male audience grew 41% and their average time spent on Pinterest tripled to more than 75 minutes per visitor\n'
p257
ag8
aa(lp258
S'66% of content that users Pin comes from brand websites\n'
p259
ag8
aa(lp260
S'LinkedIn has 450 million members\n'
p261
ag8
aa(lp262
S'100 million of those access the site on a monthly basis\n'
p263
ag8
aa(lp264
S'More than 1 million members have published content on LinkedIn\n'
p265
ag8
aa(lp266
S'The average CEO has 930 LinkedIn connections\n'
p267
ag8
aa(lp268
S'Over 3 million companies have created LinkedIn accounts\n'
p269
ag8
aa(lp270
S'But only 17% of US small businesses use LinkedIn\n'
p271
ag8
aa(lp272
S'There are 74 lobbyists for every one senator in Washington D.C.\n'
p273
ag8
aa(lp274
S'Astronaut Shannon Lucis spent 188 days in a row in space. That\xe2\x80\x99s the American record.\n'
p275
ag8
aa(lp276
S'In the U.S. the average bride is 21 years old, the average groom is 23.\n'
p277
ag8
aa(lp278
S'If you yelled for over 8 and a half years, you would have produced enough sound energy to heat one cup of coffee.\n'
p279
ag8
aa(lp280
S'No piece of square dry paper can be folded in half more than 7 times!\n'
p281
ag8
aa(lp282
S'If you counted for 24 hours a day, it would take over 31,000 years to reach one trillion.\n'
p283
ag8
aa(lp284
S'The world record for passing gas was set on Japanese television, 3,000 times in a row.\n'
p285
ag8
aa(lp286
S'There are more collect calls on father\xe2\x80\x99s Day than any other day of the year.\n'
p287
ag8
aa(lp288
S'There are 293 ways to make change for a dollar.\n'
p289
ag8
aa(lp290
S'Top Six reasons for being late for work: 1) traffic. 2) oversleeping. 3) procrastination. 4) Chores. 5) Car Trouble. 6) Having Sex.\n'
p291
ag8
aa(lp292
S'The word electricity derives from the Greek word \xe2\x80\x9celektron\xe2\x80\x9d meaning amber.\n'
p293
ag8
aa(lp294
S'Banging your head against a wall uses 150 calories an hour.\n'
p295
ag8
aa(lp296
S'The tallest man in the world was 8\xe2\x80\x9911\xe2\x80\x9d Robert Wadlow. He was just 22 when he died in 1949 from an infection caused by leg braces he needed to keep him on his feet.\n'
p297
ag8
aa(lp298
S'There is now an ATM at McMurdo Station in Antarctica, which has a winter population of 200.\n'
p299
ag8
aa(lp300
S'Around one in 35 young Australians aged 4-17 experience a depressive disorder. \n'
p301
ag8
aa(lp302
S'One in seven young Australians experience a mental health condition.\n'
p303
ag8
aa(lp304
S'One in fourteen young Australians (6.9%) aged 4-17 experienced an anxiety disorder in 2015. This is equivalent to approximately 278,000 young people.\n'
p305
ag8
aa(lp306
S'The number of deaths by suicide in young Australians is the highest it has been in 10 years \n'
p307
ag8
aa(lp308
S'Around one in three young Australian adults aged 18-24 years report experiencing racial discrimination because of their skin colour, ethnic origin or religion.\n'
p309
ag8
aa(lp310
S'Approximately one in four young people aged 13-19 years with Type 1 Diabetes experience moderate to severe symptoms of depression and anxiety.\n'
p311
ag8
aa(lp312
S'Around one in four Aboriginal and Torres Strait Islander young people aged 15\xe2\x80\x9324 years report experiencing discrimination because they were of Aboriginal and/or Torres Strait Islander origin.\n'
p313
ag8
aa(lp314
S'Evidence suggests three in four adult mental health conditions emerge by age 24 and half by age 14\n'
p315
ag8
aa(lp316
S'1 in 10 American adults has diabetes.\n'
p317
ag8
aa(lp318
S'There were 1.7 million new cases of diabetes in 2012.\n'
p319
ag8
aa(lp320
S'60% to 70% of people with diabetes experience nervous disorders.\n'
p321
ag8
aa(lp322
S'Approximately every 3 minutes one person in the United States (US) is diagnosed with a blood cancer.\n'
p323
ag8
aa(lp324
S'New cases of leukemia, lymphoma and myeloma are expected to account for 10.2 percent of the estimated 1,688,780 new cancer cases diagnosed in the US in 2017.\n'
p325
ag8
aa(lp326
S'An estimated 110,345 people in the US are living with, or in remission from, myeloma.\n'
p327
ag8
aa(lp328
S'Transportation costs rose 2.8% on a year-over-year basis in August, following a 1.9% increase the previous month.\n'
p329
ag8
aa(lp330
S'Consumer prices for food rose 0.9% in January, after increasing 0.6% in December.\n'
p331
ag8
aa(lp332
S'One in five 8 to 11 year olds and seven in ten 12 to 15 year olds has a social media profile\n'
p333
ag8
aa(lp334
S'1 in 3 internet users are children\n'
p335
ag8
aa(lp336
S'1 in 4 children have experienced something upsetting on a social networking site.\n'
p337
ag8
aa(lp338
S'There were over 12,000 counselling sessions with young people who talked to Childline about online issues last year\n'
p339
ag8
aa(lp340
S'1 in 3 children have been a victim of cyberbullying.\n'
p341
ag8
aa(lp342
S'More than 7 in 10 parents have looked for or received information or advice about how to help their child manage online risks\n'
p343
ag8
aa(lp344
S'Almost 1 in 4 young people have come across racist or hate messages online.\n'
p345
ag8
aa(lp346
S'In 2016, the Internet Watch Foundation identified over 57,000 URLs containing child sexual abuse images\n'
p347
ag8
aa(lp348
S'There were over 2,100 counselling sessions with young people who talked in Childline about online child sexual exploitation (CSE) in 2016/17 \n'
p349
ag8
aa(lp350
S'Approximately 1.25 million American children and adults have type 1 diabetes.\n'
p351
ag8
aa(lp352
S'85.2% of people with type 2 diabetes are overweight or obese\n'
p353
ag8
aa(lp354
S'The prevalence of diagnosed diabetes in the U.S. increased by 382% from 1988 to 2014\n'
p355
ag8
aa(lp356
S'A person with diagnosed diabetes at age 50 dies 6 years earlier than a counterpart without diabetes\n'
p357
ag8
aa(lp358
S'In 2006, 2.6 billion people, or 40% of the world\xe2\x80\x99s population, lived on less than $2 a day, with 1 billion of them surviving on the margins of subsistence with less than $1 a day.\n'
p359
ag8
aa(lp360
S'New York City is far from the largest city in the world, actually in 16th place at just under 8.5 million people. \n'
p361
ag8
aa(lp362
S'4 percent of lost remotes are found in the fridge or freezer\n'
p363
ag8
aa(lp364
S"there's a nearly 50 percent chance that your lost remote control is stuck between your sofa cushions\n"
p365
ag8
aa(lp366
S'According to suicide statistics, Monday is the favored day for self-destruction.\n'
p367
ag8
aa(lp368
S'25% of American men are now six feet or taller, compared to only 4% on 1900.\n'
p369
ag8
aa(lp370
S'Ice covers about 15% of the earth.\n'
p371
ag8
aa(lp372
S'In 1950, only 7% of Americans dyed their hair, now 75% do.\n'
p373
ag8
aa(lp374
S'36% of the great lakes lie within Canadian territory.\n'
p375
ag8
aa(lp376
S'Only 6% of all coupons printed are ever redeemed.\n'
p377
ag8
aa(lp378
S'The world has been at peace only 8% of the time over the last 3,500 years.\n'
p379
ag8
aa(lp380
S'60% of all atheists and agnostics say they own at least one bible.\n'
p381
ag8
aa(lp382
S'11% of the planet is covered by glaciers.\n'
p383
ag8
aa(lp384
S'There is a 33% chance that a peanut grown in the U.S. will end up as peanut butter.\n'
p385
ag8
aa(lp386
S'In the densest jungle, only 1% of sunlight ever reaches the forest floor.\n'
p387
ag8
aa(lp388
S'75% of all murder victims knew their killer.\n'
p389
ag8
aa(lp390
S'Only 6% of the land on Earth is suitable for growing crops.\n'
p391
ag8
aa(lp392
S"72% of Americans don't know the people who live next door.\n"
p393
ag8
aa(lp394
S'25% of adults say online romances "don\'t count as cheating."\n'
p395
ag8
aa(lp396
S"19% of men say they wouldn't mind being stupid as long as they had the perfect body.\n"
p397
ag8
aa(lp398
S'24% of commuters say that when stuck in traffic, they think "deep thoughts."\n'
p399
ag8
aa(lp400
S'1% of U.S. businesses allow their employees to take naps during working hours.\n'
p401
ag8
aa(lp402
S'20% of men say that their TV has taught them more about life than their parents have.\n'
p403
ag8
aa(lp404
S'60% of American babies are names after relatives.\n'
p405
ag8
aa(lp406
S'Most babies are born in August and September.\n'
p407
ag8
aa(lp408
S'Chocolate manufacturers use 40 percent of the worlds almonds.\n'
p409
ag8
aa(lp410
S'Over 15 billion prizes have been given away in cracker jack boxes.\n'
p411
ag8
aa(lp412
S'$26 billion has been paid out in ransom in the United States in the last 20 years.\n'
p413
ag8
aa(lp414
S'13 people are killed each year by vending machines falling on them.\n'
p415
ag8
aa(lp416
S'The annual growth of WWW traffic is 314,000%.\n'
p417
ag8
aa(lp418
S'53% of Americans think they are paid the right amount.\n'
p419
ag8
aa(lp420
S'About 8,000 Americans are injured by musical instruments each year.\n'
p421
ag8
aa(lp422
S'One in twelve Americans alphabetize their spice rack.\n'
p423
ag8
aa(lp424
S'95% of the creatures on earth are smaller than a chicken egg.\n'
p425
ag8
aa(lp426
S'57% of women would rather go on a shopping spree than have sex.\n'
p427
ag8
aa(lp428
S'63% of pet owners sleep with their pets.\n'
p429
ag8
aa(lp430
S'58% of school kids say pizza is their favorite cafeteria food.\n'
p431
ag8
aa(lp432
S'32% of singles polled think they will meet their future mate online.\n'
p433
ag8
aa(lp434
S'In 1948, 2.3% of American households had televisions. Today 99% do.\n'
p435
ag8
aa(lp436
S'In 1998, 58% of American adults were married and living with their spouses, an all time low.\n'
p437
ag8
aa(lp438
S'46% of violence on T.V. occurs in cartoons.\n'
p439
ag8
aa(lp440
S'Only about 5% of people dream in color.\n'
p441
ag8
aa(lp442
S'80% of high school athletes, male and female, say they have been hazed.\n'
p443
ag8
aa(lp444
S'65% of American adolescents get acne.\n'
p445
ag8
aa(lp446
S'1 in 6 employees say they got so mad at a coworker last year that "they felt like hitting them but didn\'t."\n'
p447
ag8
aa(lp448
S'The average American drinks 3.4 cups of coffee a day.\n'
p449
ag8
aa(lp450
S'85% of parents use child safety seats incorrectly.\n'
p451
ag8
aa(lp452
S'The average American kid catches 6 colds a year, the average kid in daycare catches 10.\n'
p453
ag8
aa(lp454
S'The average American male laughs 69 times a day where the average woman laughs 55 times a day.\n'
p455
ag8
aa(lp456
S'85% of obscene calls are made by males.\n'
p457
ag8
aa(lp458
S'5% of Americans never get married.\n'
p459
ag8
aa(lp460
S"60% of the county of Leichtenstein's GDP is generated from the sale of false teeth.\n"
p461
ag8
aa(lp462
S'50% of American adults attended an arts activity in 1997.\n'
p463
ag8
aa(lp464
S'People aged 24-35 worry less than adults of other age groups.\n'
p465
ag8
aa(lp466
S'5% of Americans say they "never" make their beds.\n'
p467
ag8
aa(lp468
S'The average person moves their residence 11 times in their life, about once every 6 years.\n'
p469
ag8
aa(lp470
S'35% of people watching T.V. yell at it.\n'
p471
ag8
aa(lp472
S"One in seven Americans can't locate the U.S. on a map.\n"
p473
ag8
aa(lp474
S'23% of workers said they would work harder if their employer offered a "$1,000 shopping spree at a store of their choice."\n'
p475
ag8
aa(lp476
S'Only 30% of U.S. adults actually have dandruff while 50% are "self conscious about it."\n'
p477
ag8
aa(lp478
S'32% of women and 8% of men say they are better at doing laundry than their spouse.\n'
p479
ag8
aa(lp480
S'13% of the letters in a given book are "e".\n'
p481
ag8
aa(lp482
S'The average age kids begin to use a microwave is seven.\n'
p483
ag8
aa(lp484
S'The average American uses 730 crayons by the age of 10.\n'
p485
ag8
aa(lp486
S'63% of American adults will rent at least 1 video this month.\n'
p487
ag8
aa(lp488
S'The average sleeper rolls over 12 times in bed per night.\n'
p489
ag8
aa(lp490
S'The Pentagon uses an average of 666 rolls of toilet paper each day.\n'
p491
ag8
aa(lp492
S'More babies are conceived in December than any other month.\n'
p493
ag8
aa(lp494
S'Your left hand does an average of 56% of your typing.\n'
p495
ag8
aa(lp496
S'It takes an average person seven minutes to fall asleep on an average night.'
p497
ag8
aa(lp498
S'Complex Sentence Generator is very easy to use.\n'
p499
ag3
(g4
(I0
tp500
g6
tp501
Rp502
(I1
(I2
tp503
g13
I00
S'\x00\x00\x00\x00\x00\x00\x00\x00\x01\x00\x00\x00\x00\x00\x00\x00'
p504
tp505
baa(lp506
S'fter typing or pasting content in the first text box, press the convert button to automatically paraphrase the content.\n'
p507
ag502
aa(lp508
S'This software works as a paraphrase converter for transforming simple and common english into more complex english.\n'
p509
ag502
aa(lp510
S"It can be useful as a free article spinner due to it's ability to rephrase a large body of text and potentially generate multiple unique versions with each conversion of the same content.\n"
p511
ag502
aa(lp512
S'With complex sentence generator you can reword content online and rewrite up to 10000 characters or less at a time/per conversion.\n'
p513
ag502
aa(lp514
S'This should be more than enough for spinning articles, essays or paraphrasing website content for blogs which usually consists of a large amount of content.\n'
p515
ag502
aa(lp516
S'Aside from simply being used as a tool to spin text or paraphrase content, complex sentence generator can be instrumental towards accomplishing a number of additional tasks.\n'
p517
ag502
aa(lp518
S'Improving vocabulary, learning new ways to utilize english words and phrases and adding more uniqueness to the process of generating new content.\n'
p519
ag502
aa(lp520
S'Due to how rare and uncommon a lot of the words and phrases are in the database of this paraphrase generator, it can create and exhibit a unique style of writing and vocabulary.\n'
p521
ag502
aa(lp522
S'It also makes it easier to encounter and discover new words.\n'
p523
ag502
aa(lp524
S'The quick brown fox jumps over the lazy dog.\n'
p525
ag502
aa(lp526
S'We need to rent a room for our party.\n'
p527
ag502
aa(lp528
S'Lets all be unique together until we realise we are all the same.\n'
p529
ag502
aa(lp530
S'Malls are great places to shop; I can find everything I need under one roof.\n'
p531
ag502
aa(lp532
S'If you like tuna and tomato sauce- try combining the two.\n'
p533
ag502
aa(lp534
S'It\xe2\x80\x99s really not as bad as it sounds.\n'
p535
ag502
aa(lp536
S'The sky is clear; the stars are twinkling.\n'
p537
ag502
aa(lp538
S'I want more detailed information.\n'
p539
ag502
aa(lp540
S'The stranger officiates the meal.\n'
p541
ag502
aa(lp542
S'If I don\xe2\x80\x99t like something, I\xe2\x80\x99ll stay away from it.\n'
p543
ag502
aa(lp544
S'He turned in the research paper on Friday; otherwise, he would have not passed the class.\n'
p545
ag502
aa(lp546
S'I would have gotten the promotion, but my attendance wasn\xe2\x80\x99t good enough.\n'
p547
ag502
aa(lp548
S'Wednesday is hump day, but has anyone asked the camel if he\xe2\x80\x99s happy about it?\n'
p549
ag502
aa(lp550
S'Joe made the sugar cookies; Susan decorated them.\n'
p551
ag502
aa(lp552
S"She wrote him a long letter, but he didn't read it.\n"
p553
ag502
aa(lp554
S'I hear that Nancy is very pretty.\n'
p555
ag502
aa(lp556
S'We have never been to Asia, nor have we visited Africa.\n'
p557
ag502
aa(lp558
S'They got there early, and they got really good seats.\n'
p559
ag502
aa(lp560
S'I will never be this young again.\n'
p561
ag502
aa(lp562
S'Ever.\n'
p563
ag502
aa(lp564
S'Oh damn\xe2\x80\xa6 I just got older.\n'
p565
ag502
aa(lp566
S'I really want to go to work, but I am too sick to drive.\n'
p567
ag502
aa(lp568
S'My Mum tries to be cool by saying that she likes all the same things that I do.\n'
p569
ag502
aa(lp570
S'A song can make or ruin a person\xe2\x80\x99s day if they let it get to them.\n'
p571
ag502
aa(lp572
S'She works two jobs to make ends meet; at least, that was her reason for not having time to join us.\n'
p573
ag502
aa(lp574
S'Where do random thoughts come from?\n'
p575
ag502
aa(lp576
S'Sometimes it is better to just walk away from things and go back to them later when you\xe2\x80\x99re in a better frame of mind.\n'
p577
ag502
aa(lp578
S'It was getting dark, and we weren\xe2\x80\x99t there yet.\n'
p579
ag502
aa(lp580
S'How was the math test?\n'
p581
ag502
aa(lp582
S'She did not cheat on the test, for it was not the right thing to do.\n'
p583
ag502
aa(lp584
S'Italy is my favorite country; in fact, I plan to spend two weeks there next year.\n'
p585
ag502
aa(lp586
S'What was the person thinking when they discovered cow\xe2\x80\x99s milk was fine for human consumption\xe2\x80\xa6 and why did they do it in the first place!?\n'
p587
ag502
aa(lp588
S'She was too short to see over the fence.\n'
p589
ag502
aa(lp590
S"Yeah, I think it's a good environment for learning English.\n"
p591
ag502
aa(lp592
S'Two seats were vacant.\n'
p593
ag502
aa(lp594
S'Mary plays the piano.\n'
p595
ag502
aa(lp596
S'The lake is a long way from here.\n'
p597
ag502
aa(lp598
S'Hurry!\n'
p599
ag502
aa(lp600
S'He told us a very exciting adventure story.\n'
p601
ag502
aa(lp602
S'He ran out of money, so he had to stop playing poker.\n'
p603
ag502
aa(lp604
S'Writing a list of random sentences is harder than I initially thought it would be.\n'
p605
ag502
aa(lp606
S'I was very proud of my nickname throughout high school but today- I couldn\xe2\x80\x99t be any different to what my nickname was.\n'
p607
ag502
aa(lp608
S'The body may perhaps compensates for the loss of a true metaphysics.\n'
p609
ag502
aa(lp610
S'This is a Japanese doll.\n'
p611
ag502
aa(lp612
S'Is it free?\n'
p613
ag502
aa(lp614
S'The memory we used to share is no longer coherent.\n'
p615
ag502
aa(lp616
S'Wow, does that work?\n'
p617
ag502
aa(lp618
S'She always speaks to him in a loud voice.\n'
p619
ag502
aa(lp620
S'I currently have 4 windows open up\xe2\x80\xa6 and I don\xe2\x80\x99t know why.\n'
p621
ag502
aa(lp622
S'Sometimes, all you need to do is completely make an ass of yourself and laugh it off to realise that life isn\xe2\x80\x99t so bad after all.\n'
p623
ag502
aa(lp624
S'Cats are good pets, for they are clean and are not noisy.\n'
p625
ag502
aa(lp626
S'A glittering gem is not enough.\n'
p627
ag502
aa(lp628
S'Everyone was busy, so I went to the movie alone.\n'
p629
ag502
aa(lp630
S'Should we start class now, or should we wait for everyone to get here?\n'
p631
ag502
aa(lp632
S"I'd rather be a bird than a fish.\n"
p633
ag502
aa(lp634
S'This is the last random sentence I will be writing and I am going to stop mid-sent\n'
p635
ag502
aa(lp636
S"Don't step on the broken glass.\n"
p637
ag502
aa(lp638
S'I love eating toasted cheese and tuna sandwiches.\n'
p639
ag502
aa(lp640
S'The book is in front of the table.\n'
p641
ag502
aa(lp642
S'If Purple People Eaters are real\xe2\x80\xa6 where do they find purple people to eat?\n'
p643
ag502
aa(lp644
S'Sixty-Four comes asking for bread.\n'
p645
ag502
aa(lp646
S'Check back tomorrow; I will see if the book has arrived.\n'
p647
ag502
aa(lp648
S'A purple pig and a green donkey flew a kite in the middle of the night and ended up sunburnt.\n'
p649
ag502
aa(lp650
S'The mysterious diary records the voice.\n'
p651
ag502
aa(lp652
S'I think I will buy the red car, or I will lease the blue one.\n'
p653
ag502
aa(lp654
S'The clock within this blog and the clock on my laptop are 1 hour different from each other.\n'
p655
ag502
aa(lp656
S'She did her best to help him.\n'
p657
ag502
aa(lp658
S'I am counting my calories, yet I really want dessert.\n'
p659
ag502
aa(lp660
S'Christmas is coming.\n'
p661
ag502
aa(lp662
S'The river stole the gods.\n'
p663
ag502
aa(lp664
S'The shooter says goodbye to his love.\n'
p665
ag502
aa(lp666
S'I often see the time 11:11 or 12:34 on clocks.\n'
p667
ag502
aa(lp668
S'He said he was not there yesterday; however, many people saw him there.\n'
p669
ag502
aa(lp670
S'Tom got a small piece of pie.\n'
p671
ag502
aa(lp672
S'He didn\xe2\x80\x99t want to go to the dentist, yet he went anyway.\n'
p673
ag502
aa(lp674
S'Please wait outside of the house.\n'
p675
ag502
aa(lp676
S'She advised him to come back at once.\n'
p677
ag502
aa(lp678
S'I am happy to take your donation; any amount will be greatly appreciated.\n'
p679
ag502
aa(lp680
S'She folded her handkerchief neatly.\n'
p681
ag502
aa(lp682
S'The old apple revels in its authority.\n'
p683
ag502
aa(lp684
S'The waves were crashing on the shore; it was a lovely sight.\n'
p685
ag502
aa(lp686
S'When I was little I had a car door slammed shut on my hand.\n'
p687
ag502
aa(lp688
S'I still remember it quite vividly.\n'
p689
ag502
aa(lp690
S'Abstraction is often one floor above you.\n'
p691
ag502
aa(lp692
S'There were white out conditions in the town; subsequently, the roads were impassable.\n'
p693
ag502
aa(lp694
S'I checked to make sure that he was still alive.\n'
p695
ag502
aa(lp696
S'I am never at home on Sundays.\n'
p697
ag502
aa(lp698
S'Let me help you with your baggage.\n'
p699
ag502
aa(lp700
S"She borrowed the book from him many years ago and hasn't yet returned it.\n"
p701
ag502
aa(lp702
S'If the Easter Bunny and the Tooth Fairy had babies would they take your teeth and leave chocolate for you?\n'
p703
ag502
aa(lp704
S'There was no ice cream in the freezer, nor did they have money to go to the store.\n'
p705
ag502
aa(lp706
S'Last Friday in three week\xe2\x80\x99s time I saw a spotted striped blue worm shake hands with a legless lizard.\n'
p707
ag502
aa(lp708
S'Someone I know recently combined Maple Syrup & buttered Popcorn thinking it would taste like caramel popcorn.\n'
p709
ag502
aa(lp710
S'It didn\xe2\x80\x99t and they don\xe2\x80\x99t recommend anyone else do it either.\n'
p711
ag502
aa(lp712
S'I want to buy a onesie\xe2\x80\xa6 but know it won\xe2\x80\x99t suit me.\n'
p713
ag502
aa(lp714
S'We have a lot of rain in June.\n'
p715
ag502
aa(lp716
S'Rock music approaches at high velocity.\n'
p717
ag502
aa(lp718
S'She only paints with bold colors; she does not like pastels.\n'
p719
ag502
aa(lp720
S'Christmas is coming.\n'
p721
ag502
aa(lp722
S'Writing a list of random sentences is harder than I initially thought it would be.\n'
p723
ag502
aa(lp724
S'Everyone was busy, so I went to the movie alone.\n'
p725
ag502
aa(lp726
S'Check back tomorrow; I will see if the book has arrived.\n'
p727
ag502
aa(lp728
S'Sometimes it is better to just walk away from things and go back to them later when you\xe2\x80\x99re in a better frame of mind.\n'
p729
ag502
aa(lp730
S'When I was little I had a car door slammed shut on my hand.\n'
p731
ag502
aa(lp732
S'I still remember it quite vividly.\n'
p733
ag502
aa(lp734
S'She only paints with bold colors; she does not like pastels.\n'
p735
ag502
aa(lp736
S'She did her best to help him.\n'
p737
ag502
aa(lp738
S'If I don\xe2\x80\x99t like something, I\xe2\x80\x99ll stay away from it.\n'
p739
ag502
aa(lp740
S'The waves were crashing on the shore; it was a lovely sight.\n'
p741
ag502
aa(lp742
S'Rock music approaches at high velocity.\n'
p743
ag502
aa(lp744
S'The lake is a long way from here.\n'
p745
ag502
aa(lp746
S'She was too short to see over the fence.\n'
p747
ag502
aa(lp748
S'I checked to make sure that he was still alive.\n'
p749
ag502
aa(lp750
S'The river stole the gods.\n'
p751
ag502
aa(lp752
S'Tom got a small piece of pie.\n'
p753
ag502
aa(lp754
S'He turned in the research paper on Friday; otherwise, he would have not passed the class.\n'
p755
ag502
aa(lp756
S'I currently have 4 windows open up\xe2\x80\xa6 and I don\xe2\x80\x99t know why.\n'
p757
ag502
aa(lp758
S'A purple pig and a green donkey flew a kite in the middle of the night and ended up sunburnt.\n'
p759
ag502
aa(lp760
S'The quick brown fox jumps over the lazy dog.\n'
p761
ag502
aa(lp762
S'There was no ice cream in the freezer, nor did they have money to go to the store.\n'
p763
ag502
aa(lp764
S'Abstraction is often one floor above you.\n'
p765
ag502
aa(lp766
S'Please wait outside of the house.\n'
p767
ag502
aa(lp768
S'The mysterious diary records the voice.\n'
p769
ag502
aa(lp770
S'She always speaks to him in a loud voice.\n'
p771
ag502
aa(lp772
S'Lets all be unique together until we realise we are all the same.\n'
p773
ag502
aa(lp774
S'It was getting dark, and we weren\xe2\x80\x99t there yet.\n'
p775
ag502
aa(lp776
S'I would have gotten the promotion, but my attendance wasn\xe2\x80\x99t good enough.\n'
p777
ag502
aa(lp778
S'This is a Japanese doll.\n'
p779
ag502
aa(lp780
S'He said he was not there yesterday; however, many people saw him there.\n'
p781
ag502
aa(lp782
S'Sixty-Four comes asking for bread.\n'
p783
ag502
aa(lp784
S'If you like tuna and tomato sauce- try combining the two.\n'
p785
ag502
aa(lp786
S'It\xe2\x80\x99s really not as bad as it sounds.\n'
p787
ag502
aa(lp788
S'She advised him to come back at once.\n'
p789
ag502
aa(lp790
S'We have a lot of rain in June.\n'
p791
ag502
aa(lp792
S'Hurry!\n'
p793
ag502
aa(lp794
S'I am never at home on Sundays.\n'
p795
ag502
aa(lp796
S'The shooter says goodbye to his love.\n'
p797
ag502
aa(lp798
S'What was the person thinking when they discovered cow\xe2\x80\x99s milk was fine for human consumption\xe2\x80\xa6 and why did they do it in the first place!?\n'
p799
ag502
aa(lp800
S'If Purple People Eaters are real\xe2\x80\xa6 where do they find purple people to eat?\n'
p801
ag502
aa(lp802
S'The old apple revels in its authority.\n'
p803
ag502
aa(lp804
S'Sometimes, all you need to do is completely make an ass of yourself and laugh it off to realise that life isn\xe2\x80\x99t so bad after all.\n'
p805
ag502
aa(lp806
S'I think I will buy the red car, or I will lease the blue one.\n'
p807
ag502
aa(lp808
S'He ran out of money, so he had to stop playing poker.\n'
p809
ag502
aa(lp810
S"Don't step on the broken glass.\n"
p811
ag502
aa(lp812
S'Someone I know recently combined Maple Syrup & buttered Popcorn thinking it would taste like caramel popcorn.\n'
p813
ag502
aa(lp814
S'It didn\xe2\x80\x99t and they don\xe2\x80\x99t recommend anyone else do it either.\n'
p815
ag502
aa(lp816
S'He told us a very exciting adventure story.\n'
p817
ag502
aa(lp818
S"She borrowed the book from him many years ago and hasn't yet returned it.\n"
p819
ag502
aa(lp820
S'I was very proud of my nickname throughout high school but today- I couldn\xe2\x80\x99t be any different to what my nickname was.\n'
p821
ag502
aa(lp822
S'Let me help you with your baggage.\n'
p823
ag502
aa(lp824
S'I want to buy a onesie\xe2\x80\xa6 but know it won\xe2\x80\x99t suit me.\n'
p825
ag502
aa(lp826
S'There were white out conditions in the town; subsequently, the roads were impassable.\n'
p827
ag502
aa(lp828
S'Cats are good pets, for they are clean and are not noisy.\n'
p829
ag502
aa(lp830
S'My Mum tries to be cool by saying that she likes all the same things that I do.\n'
p831
ag502
aa(lp832
S'I will never be this young again.\n'
p833
ag502
aa(lp834
S'Ever.\n'
p835
ag502
aa(lp836
S'Oh damn\xe2\x80\xa6 I just got older.\n'
p837
ag502
aa(lp838
S'Mary plays the piano.\n'
p839
ag502
aa(lp840
S'She did not cheat on the test, for it was not the right thing to do.\n'
p841
ag502
aa(lp842
S'Is it free?\n'
p843
ag502
aa(lp844
S'Joe made the sugar cookies; Susan decorated them.\n'
p845
ag502
aa(lp846
S'Where do random thoughts come from?\n'
p847
ag502
aa(lp848
S'I love eating toasted cheese and tuna sandwiches.\n'
p849
ag502
aa(lp850
S'Italy is my favorite country; in fact, I plan to spend two weeks there next year.\n'
p851
ag502
aa(lp852
S"I'd rather be a bird than a fish.\n"
p853
ag502
aa(lp854
S'Two seats were vacant.\n'
p855
ag502
aa(lp856
S'She folded her handkerchief neatly.\n'
p857
ag502
aa(lp858
S'The sky is clear; the stars are twinkling.\n'
p859
ag502
aa(lp860
S'We have never been to Asia, nor have we visited Africa.\n'
p861
ag502
aa(lp862
S'He didn\xe2\x80\x99t want to go to the dentist, yet he went anyway.\n'
p863
ag502
aa(lp864
S'I am happy to take your donation; any amount will be greatly appreciated.\n'
p865
ag502
aa(lp866
S'She works two jobs to make ends meet; at least, that was her reason for not having time to join us.\n'
p867
ag502
aa(lp868
S'Wednesday is hump day, but has anyone asked the camel if he\xe2\x80\x99s happy about it.\n'
p869
ag502
aa(lp870
S'I want more detailed information.\n'
p871
ag502
aa(lp872
S'We need to rent a room for our party.\n'
p873
ag502
aa(lp874
S'The clock within this blog and the clock on my laptop are 1 hour different from each other.\n'
p875
ag502
aa(lp876
S'They got there early, and they got really good seats.\n'
p877
ag502
aa(lp878
S'In order to rephrase a sentence, paragraph, essay or article effectively, content with good grammar and spelling is important when using this automatic paraphraser because it can only recognize, understand and rewrite correct grammar.\n'
p879
ag502
aa(lp880
S'For an article rewriter that is in the form of a bot, it does a good job of respecting english and using replacements that make sense.\n'
p881
ag502
aa(lp882
S'Content that is written in all caps or with the first letter of every word capitalized can still be rephrased by this software.\n'
p883
ag502
aa(lp884
S'Otherwise, as long as the grammar of the content is sensible and recognizable, complex sentence generator can make the task of paraphrasing easy.\n'
p885
ag502
aa(lp886
S'Rather than having to research synonyms for words or phrases and deduce which ones are the most suitable substitutes for any context a word or phrase may be used in, paraphrasing is done on auto pilot.\n'
p887
ag502
aa(lp888
S'I called him "the carpenter".\n'
p889
ag502
aa(lp890
S'I called him "the computer programmer".\n'
p891
ag502
aa(lp892
S'Those bankers got the TV repaired.\n'
p893
ag502
aa(lp894
S'Those guards name the ship Titanic.\n'
p895
ag502
aa(lp896
S'Peter keeps the room warm.\n'
p897
ag502
aa(lp898
S"This is Sarah's knife.\n"
p899
ag502
aa(lp900
S"Those guards don't own a single heavy car.\n"
p901
ag502
aa(lp902
S'The guards have a some trucks behind the post office.\n'
p903
ag502
aa(lp904
S"She doesn't have a strange box.\n"
p905
ag502
aa(lp906
S'Those flight attendants own many guitars.\n'
p907
ag502
aa(lp908
S'He has a clock.\n'
p909
ag502
aa(lp910
S"That musician doesn't have a motorcycle.\n"
p911
ag502
aa(lp912
S"Roger's father doesn't have a large letter.\n"
p913
ag502
aa(lp914
S'I have a dress in the doghouse.\n'
p915
ag502
aa(lp916
S'Those car mechanics own many little textbooks.\n'
p917
ag502
aa(lp918
S'I am talking on the top of the mountain nowadays.\n'
p919
ag502
aa(lp920
S"Joe's girlfriend swims at the bookstore.\n"
p921
ag502
aa(lp922
S'The bartenders have a some gloves between the two mountains.\n'
p923
ag502
aa(lp924
S'Are you car mechanics jumping over there these days?\n'
p925
ag502
aa(lp926
S'Are you barbers jogging in front of the restaurant now?\n'
p927
ag502
aa(lp928
S'The carpenter has a motorcycle next to the police station.\n'
p929
ag502
aa(lp930
S"The police officer doesn't jump in the doghouse.\n"
p931
ag502
aa(lp932
S'Those photographers are not cooking in the mountains.\n'
p933
ag502
aa(lp934
S'That police officer sleeps on the top of the mountain.\n'
p935
ag502
aa(lp936
S"Doesn't Andrew's uncle surf in the living room?\n"
p937
ag502
aa(lp938
S'Are Mr. and Mrs. Eastwood very careful?\n'
p939
ag502
aa(lp940
S'She has jumped.\n'
p941
ag502
aa(lp942
S"Haven't the photographers ever danced?\n"
p943
ag502
aa(lp944
S'Have you fought lately?\n'
p945
ag502
aa(lp946
S'I have just driven.\n'
p947
ag502
aa(lp948
S'They have studied since earlier this morning.\n'
p949
ag502
aa(lp950
S"I haven't hated talking.\n"
p951
ag502
aa(lp952
S"Weren't those librarians practicing shaving?\n"
p953
ag502
aa(lp954
S'Sarah is not missing eating these days.\n'
p955
ag502
aa(lp956
S'Did those librarians regret singing?\n'
p957
ag502
aa(lp958
S"They aren't missing jogging in front of the restaurant.\n"
p959
ag502
aa(lp960
S'Is Bruce practicing driving in London at the moment?\n'
p961
ag502
aa(lp962
S"Doesn't Edward very often miss skiing?\n"
p963
ag502
aa(lp964
S'They are enjoying reading in London.\n'
p965
ag502
aa(lp966
S'I loved shouting.\n'
p967
ag502
aa(lp968
S'That bus driver is not enjoying swimming.'
p969
ag502
aa.